(lp0
(S"REQ #7030419 - NonITMGMT can't add webex meeting"
p1
S'Outlook'
p2
tp3
a(S'REQ #7030376 - NonITMGMT Unable to open outlook'
p4
g2
tp5
a(S'REQ #7013724 - NonITMGMT cant start outlook'
p6
g2
tp7
a(S'REQ #7019349 - NonITMGMT MS outlook not starting'
p8
g2
tp9
a(S'NonITMGMT Setup webex meeting button is not displayed on outlook.'
p10
g2
tp11
a(S"REQ #7030215 - NonITMGMT user's outlook can't work"
p12
g2
tp13
a(S"REQ #7030215 - NonITMGMT user's outlook can't work"
p14
g2
tp15
a(S'NonITMGMT Outlook Issue'
p16
g2
tp17
a(S'NonITMGMT pst file is missing'
p18
g2
tp19
a(S'NonITMGMT Outlook Issue'
p20
g2
tp21
a(S'REQ #7018365 - NonITMGMT Unable to open'
p22
g2
tp23
a(S'I am not receiving few emails send to me'
p24
g2
tp25
a(S'NonITMGMT unable to open the outlook'
p26
g2
tp27
a(S'REQ #7015718 - NonITMGMT Uable to open Outlook.'
p28
g2
tp29
a(S'REQ #7015718 - NonITMGMT Uable to open Outlook.'
p30
g2
tp31
a(S'NonITMGMT outlook'
p32
g2
tp33
a(S'REQ #7029795 - NonITMGMT user wanted to delete a meeting'
p34
g2
tp35
a(S'REQ #7029765 - NonITMGMT The end user reports that cannot open his Outlook properly.'
p36
g2
tp37
a(S'REQ #7010498 - NonITMGMT OUTLOOK NOT WORKING'
p38
g2
tp39
a(S'The .pst file dissapeared from the sharedrive.'
p40
g2
tp41
a(S'REQ #7011094 - PC 5279'
p42
g2
tp43
a(S'NonITMGMT password reset for outlook'
p44
g2
tp45
a(S'Issue with the outlook'
p46
g2
tp47
a(S'NonITMGMT unable to open outlook'
p48
g2
tp49
a(S'REQ #7029300 - NonITMGMT webex in outlook not available'
p50
g2
tp51
a(S'NonITMGMT unable to open outlook'
p52
g2
tp53
a(S'NonITMGMT Webex addin missing'
p54
g2
tp55
a(S'NonITMGMT User wants to Reset Mobile Iron Password'
p56
g2
tp57
a(S'cus is unable to login to outlook'
p58
g2
tp59
a(S'REQ #7028898 - NonITMGMT outlook gives error when trying to access a pst'
p60
g2
tp61
a(S'User needs to increase mailbox size'
p62
g2
tp63
a(S'NonITMGMT Request additional mailbox space'
p64
g2
tp65
a(S'REQ #7000604 - NonITMGMT SPLICITY generic CDSid is unable to open Outlook'
p66
g2
tp67
a(S'Not receiving some of the emails'
p68
g2
tp69
a(S'Customer reported that he is not receiving some of his email'
p70
g2
tp71
a(S'NonITMGMT Unable to open outlook'
p72
g2
tp73
a(S'NonITMGMT issue with outlook PST'
p74
g2
tp75
a(S'REQ #7028217 - NonITMGMT The end user reports that cannot use the Outlook correctly.'
p76
g2
tp77
a(S'REQ #7028535 - NonITMGMT issue with outlook'
p78
g2
tp79
a(S'NonITMGMT Lync 2013'
p80
g2
tp81
a(S'NonITMGMT unable to open outlook'
p82
g2
tp83
a(S'REQ #7027634 - PC 5098'
p84
g2
tp85
a(S'REQ #7027634 - PC 5098'
p86
g2
tp87
a(S'REQ #7028333 - NonITMGMT Outlook Issue'
p88
g2
tp89
a(S'Need to change the owner name'
p90
g2
tp91
a(S'NonITMGMT change ownership of the CR/Hoist/Bays listed below'
p92
g2
tp93
a(S'NonITMGMT FMAIL login problem'
p94
g2
tp95
a(S'REQ #7027599 -'
p96
g2
tp97
a(S"REQ #7028076 - NonITMGMT Can't open outlook."
p98
g2
tp99
a(S'REQ #7020953 - NonITMGMT Unable to open email'
p100
g2
tp101
a(S'REQ #7020953 - NonITMGMT Unable to open email'
p102
g2
tp103
a(S'REQ #7020953 - NonITMGMT Unable to open email'
p104
g2
tp105
a(S'NonITMGMT issue with outlook profile'
p106
g2
tp107
a(S'NonITMGMT outlook 2010'
p108
g2
tp109
a(S'REQ #7000450 - Rob OL*2ndSNOW Day*  NonITMGMT outlook wont open'
p110
g2
tp111
a(S'REQ #7027486 - NonITMGMT Outlook Issue'
p112
g2
tp113
a(S'REQ #7027232 - NonITMGMT Outlook does not start'
p114
g2
tp115
a(S'NonITMGMT Outlook not connecting to the server'
p116
g2
tp117
a(S'REQ #7027017 - NonITMGMT  mailbox photo change'
p118
g2
tp119
a(S'NonITMGMT outlook webex icon'
p120
g2
tp121
a(S'REQ #7026759 - NonITMGMT unable to connect'
p122
g2
tp123
a(S'REQ #7017979 - PC 6131'
p124
g2
tp125
a(S'REQ #7026735 - NonITMGMT unable to locate pst'
p126
g2
tp127
a(S'NonITMGMT User report creat outlook profile failed.'
p128
g2
tp129
a(S'REQ #7026288 - NonITMGMT unable to open outlook'
p130
g2
tp131
a(S'NonITMGMT Outlook issue'
p132
g2
tp133
a(S'REQ #7026321 - NonITMGMT outlook not opening'
p134
g2
tp135
a(S'REQ #7026169 - NonITMGMT Unable to safe in .pst file'
p136
g2
tp137
a(S'Cannot open Outlook'
p138
g2
tp139
a(S'NonITMGMT Outlook'
p140
g2
tp141
a(S'REQ #7025074 - PC 7558'
p142
g2
tp143
a(S'REQ #7025074 - PC 7558'
p144
g2
tp145
a(S'REQ #6985537 - NonITMGMT No permission to log'
p146
g2
tp147
a(S'REQ #6985537 - NonITMGMT No permission to log'
p148
g2
tp149
a(S'NonITMGMT User report outlook cannot work'
p150
g2
tp151
a(S'REQ #7025910 - NonITMGMT Mailbox full'
p152
g2
tp153
a(S'outlook closing automatically'
p154
g2
tp155
a(S'REQ #7025487 - NonITMGMT Webex icon is missing'
p156
g2
tp157
a(S'REQ #7025382 - NonITMGMT reactivated webex add-in'
p158
g2
tp159
a(S'REQ #7025325 - NonITMGMT could not access chellrie Inbox though access granted'
p160
g2
tp161
a(S'REQ #7024249 - NonITMGMT outlook cannot open'
p162
g2
tp163
a(S'REQ #7025245 - NonITMGMT Webex icon is missing'
p164
g2
tp165
a(S'REQ #7025112 - NonITMGMT Outlook doesnt launch after reactivation'
p166
g2
tp167
a(S'REQ #7025081 - NonITMGMT Unable to open outlook'
p168
g2
tp169
a(S"REQ #7018380 - NonITMGMT user's calendar can't book meeting"
p170
g2
tp171
a(S"REQ #7018380 - NonITMGMT user's calendar can't book meeting"
p172
g2
tp173
a(S'REQ #7013436 - NonITMGMT my outlook2013 has issue at the Outlook Today page'
p174
g2
tp175
a(S'REQ #7024740 - NonITMGMT Czhang38 help user solved outlook error'
p176
g2
tp177
a(S'REQ #7024697 - NonITMGMT outlook over size limit'
p178
g2
tp179
a(S'Please increase mailbox size'
p180
g2
tp181
a(S'REQ #7024389 - PC 7524'
p182
g2
tp183
a(S'REQ #7024592 - NonITMGMT Inbox oversized'
p184
g2
tp185
a(S'REQ #7024582 - NonITMGMT webex icon missing'
p186
g2
tp187
a(S'REQ #7008155 - NonITMGMT It cannot stat or open the window.'
p188
g2
tp189
a(S'REQ #7024089 - NonITMGMT when user add a new WebEX meeting it shows messy words'
p190
g2
tp191
a(S'REQ #7024149 - NonITMGMT Unable to launch the outlook profile'
p192
g2
tp193
a(S'REQ #7024148 - NonITMGMT Outlook ost issue'
p194
g2
tp195
a(S'REQ #7019562 - NonITMGMT WebEx is disappeared'
p196
g2
tp197
a(S'REQ #7023786 - PC 6104'
p198
g2
tp199
a(S'REQ #7023980 - NonITMGMT outlook always offline'
p200
g2
tp201
a(S'NonITMGMT webex icon missing'
p202
g2
tp203
a(S'Cannot start MS Outlook'
p204
g2
tp205
a(S'REQ #7017451 - NonITMGMT User reports that Outlook is not open and is stopping .'
p206
g2
tp207
a(S"REQ #7010056 - NonITMGMT I can't access outlook 2010."
p208
g2
tp209
a(S'NonITMGMT Increase the mail box size'
p210
g2
tp211
a(S'NonITMGMT user had an issue with the outlook'
p212
g2
tp213
a(S'NonITMGMT webex icon disaapeared'
p214
g2
tp215
a(S'NonITMGMT OUTLOOK ISSUE'
p216
g2
tp217
a(S'REQ #7021980 - NonITMGMT User is having issues opening emails and viewing attachments.'
p218
g2
tp219
a(S'REQ #7022883 - NonITMGMT User needs to retrieve mails'
p220
g2
tp221
a(S'NonITMGMT Increase the mail box size for generic id'
p222
g2
tp223
a(S'Calendar not getting updated'
p224
g2
tp225
a(S'REQ #7022831 -'
p226
g2
tp227
a(S'REQ #7012984 - PC 5313'
p228
g2
tp229
a(S'BDX-FAI-MOS conference room issue for Mrs GINTER'
p230
g2
tp231
a(S'NonITMGMT User requested configure an Generic email on Outlook.'
p232
g2
tp233
a(S'REQ #7010925 - PC 5215'
p234
g2
tp235
a(S'REQ #7000959 - NonITMGMT User reports that Outlook is not open and is stopping .'
p236
g2
tp237
a(S'could you please Increase mailbox size to 5 Go for PCHEVRO1'
p238
g2
tp239
a(S'unable to map pst'
p240
g2
tp241
a(S'Unable to receive emails'
p242
g2
tp243
a(S'REQ #7017994 - NonITMGMT User cannot access PST files'
p244
g2
tp245
a(S'REQ #7017994 - NonITMGMT User cannot access PST files'
p246
g2
tp247
a(S'Having problems trying to add a shared mailbox folder in Outlook.'
p248
g2
tp249
a(S'REQ #6978860 - NonITMGMT Outlook is prompting for username/password repeatedly'
p250
g2
tp251
a(S'REQ #6978860 - NonITMGMT Outlook is prompting for username/password repeatedly'
p252
g2
tp253
a(S'I deleted Mobile Iron no longer receive e-mails on my phone'
p254
g2
tp255
a(S'My current e-mail is not pulling up on my corporate I-phone 6'
p256
g2
tp257
a(S'REQ #6973927 - NonITMGMT CANNOT ADD WEBEX MEETING TO OUTLOOK APPOINTMENTS'
p258
g2
tp259
a(S'REQ #7004848 - NonITMGMT Outlook 2013 is asking Microsoft Exchange login'
p260
g2
tp261
a(S'REQ #6958306 - NonITMGMT User reports that Outlook is not open and is stopping .'
p262
g2
tp263
a(S'REQ #6999267 - NonITMGMT Workflow approval in Outlook generating error message'
p264
g2
tp265
a(S'Android user can not login to OWA'
p266
g2
tp267
a(S'Outlook says it can no find a PST file'
p268
g2
tp269
a(S'REQ #7021735 - NonITMGMT outlook issue'
p270
g2
tp271
a(S'REQ #7020813 - NonITMGMT Unable to send emails from outlook'
p272
g2
tp273
a(S"REQ #7016215 - Warley NonITMGMT Can't sync emails on outlook"
p274
g2
tp275
a(S"REQ #7016215 - Warley NonITMGMT Can't sync emails on outlook"
p276
g2
tp277
a(S'Not receiving mails in Touchdown'
p278
g2
tp279
a(S'REQ #7021534 - NonITMGMT Webex addin is disabled in Outlook 2013.'
p280
g2
tp281
a(S'user is not able to access his pst folder'
p282
g2
tp283
a(S'REQ #7021078 - NonITMGMT outlook'
p284
g2
tp285
a(S'REQ #7011106 - NonITMGMT scan to e-mail error. The following job has an error. Retry'
p286
g2
tp287
a(S'REQ #7011106 - NonITMGMT scan to e-mail error. The following job has an error. Retry'
p288
g2
tp289
a(S'REQ #7017156 - NonITMGMT unable to open outlook'
p290
g2
tp291
a(S'REQ #7017156 - NonITMGMT unable to open outlook'
p292
g2
tp293
a(S'REQ #7021219 - NonITMGMT outlook not responding'
p294
g2
tp295
a(S'NonITMGMT outlook issue'
p296
g2
tp297
a(S'NonITMGMT Outlook issue'
p298
g2
tp299
a(S'REQ #7019663 - PC 7134'
p300
g2
tp301
a(S'Outlook access for Laptop'
p302
g2
tp303
a(S'REQ #6966768 - RCB - S1 - NonITMGMT User facing issue with outlook'
p304
g2
tp305
a(S'REQ #6966768 - RCB - S1 - NonITMGMT User facing issue with outlook'
p306
g2
tp307
a(S'REQ #7016906 - PC 5344'
p308
g2
tp309
a(S'REQ #7020535 - NonITMGMT Outlook calendar issue'
p310
g2
tp311
a(S'REQ #7014135 - PC 7130'
p312
g2
tp313
a(S'Install Microsoft Outlook 2010 Version:  OS: Microsoft Windows 7 Enterprise SP1 (64-bit)'
p314
g2
tp315
a(S'REQ #7020377 - NonITMGMT Cannot to send emails'
p316
g2
tp317
a(S'REQ #7020404 - NonITMGMT unable to open outlook'
p318
g2
tp319
a(S'REQ #7020127 - NonITMGMT outlook is asking password frequently'
p320
g2
tp321
a(S'REQ #7013989 - NonITMGMT outlook does not start correctly. error message appears'
p322
g2
tp323
a(S'NonITMGMT Outlook is slow'
p324
g2
tp325
a(S'REQ #7019997 - NonITMGMT ost file damaged'
p326
g2
tp327
a(S'REQ #7019949 - NonITMGMT Unable to open outlook'
p328
g2
tp329
a(S'NonITMGMT User report outlook cannot receive emails.'
p330
g2
tp331
a(S'REQ #7019904 - NonITMGMT outlook issue'
p332
g2
tp333
a(S'REQ #7019857 - NonITMGMT user is not able to open pst folder'
p334
g2
tp335
a(S'REQ #7008495 - PC 9250'
p336
g2
tp337
a(S'REQ #7008495 - PC 9250'
p338
g2
tp339
a(S'NonITMGMT User wanted to know on the status of the ticket.'
p340
g2
tp341
a(S'REQ #7019404 - NonITMGMT Outlook not opening'
p342
g2
tp343
a(S'REQ #7018414 - NonITMGMT Outlook Issue'
p344
g2
tp345
a(S'REQ #7010490 - NonITMGMT Error pop-up on outlook'
p346
g2
tp347
a(S'REQ #7010490 - NonITMGMT Error pop-up on outlook'
p348
g2
tp349
a(S'REQ #7019278 - NonITMGMT outlook not working'
p350
g2
tp351
a(S'Niehl REQ #6986221 - NonITMGMT "Outlook Today" Screen shows no content'
p352
g2
tp353
a(S'NonITMGMT add recriver shu31 and whao for delegate conf. with ID FAFCNR'
p354
g2
tp355
a(S'REQ #7019166 - NonITMGMT unable to start outlook'
p356
g2
tp357
a(S'NonITMGMT add receiver for delegate conf room with ID:FAFCVR'
p358
g2
tp359
a(S'NonITMGMT add delegate receiver  wqian3 for conf. room with ID FAFCAR'
p360
g2
tp361
a(S'REQ #7019159 - NonITMGMT webex add in'
p362
g2
tp363
a(S'REQ #7019154 - NonITMGMT how to archive calendar (mailbox full)'
p364
g2
tp365
a(S'REQ #6986999 - PC 7285'
p366
g2
tp367
a(S'MobileIron issue'
p368
g2
tp369
a(S'NonITMGMT Config outlook'
p370
g2
tp371
a(S'REQ #7013946 - NonITMGMT outlook not opening'
p372
g2
tp373
a(S'REQ #7007522 - PC 7517'
p374
g2
tp375
a(S'REQ #7007522 - PC 7517'
p376
g2
tp377
a(S'NonITMGMT User is facing issues in outlook'
p378
g2
tp379
a(S'unable to send receive email, mailbox size full'
p380
g2
tp381
a(S'REQ #7013547 - NonITMGMT outlook issue'
p382
g2
tp383
a(S'Migration of Large .pst files'
p384
g2
tp385
a(S'REQ #7018180 - NonITMGMT User is unable to access mails in folders'
p386
g2
tp387
a(S'NonITMGMT User wants the name changed to Nichole from Nicole as it is spelt wrong.'
p388
g2
tp389
a(S'NonITMGMT User requested support about Outlook Personal Folder.'
p390
g2
tp391
a(S'NonITMGMT Request for orientation.'
p392
g2
tp393
a(S'NonITMGMT outlook login failed'
p394
g2
tp395
a(S'I can not acces my file.'
p396
g2
tp397
a(S'REQ #7013107 - NonITMGMT Outlook issue'
p398
g2
tp399
a(S'REQ #7013107 - NonITMGMT Outlook issue'
p400
g2
tp401
a(S'REQ #6984594 - NonITMGMT user can no longer open an .ics file from an attachment'
p402
g2
tp403
a(S'REQ #7017984 -'
p404
g2
tp405
a(S'Cannot access one of my personal folders (mweibel)'
p406
g2
tp407
a(S'REQ #7010952 - NonITMGMT Outlook is not responding'
p408
g2
tp409
a(S'REQ #7010952 - NonITMGMT Outlook is not responding'
p410
g2
tp411
a(S'REQ #7015472 - PC 5040'
p412
g2
tp413
a(S'REQ #7015472 - PC 5040'
p414
g2
tp415
a(S'NonITMGMT user had an issue with the outlook'
p416
g2
tp417
a(S'NonITMGMT Unable to access ford mail'
p418
g2
tp419
a(S'NonITMGMT Unable to open the outlook'
p420
g2
tp421
a(S'Unable to access Outlook'
p422
g2
tp423
a(S'NonITMGMT User cant send email when he do that the outlook close'
p424
g2
tp425
a(S'REQ #7004009 - NonITMGMT Outlook often frozen and shut down'
p426
g2
tp427
a(S'REQ #7006807 - NonITMGMT dporte74@ford.com is not able to open outlook'
p428
g2
tp429
a(S'REQ #7000818 - PC 5036'
p430
g2
tp431
a(S'REQ #7017656 - NonITMGMT Configure profile'
p432
g2
tp433
a(S'REQ #7011128 - NonITMGMT outlook not working'
p434
g2
tp435
a(S'REQ #7017599 - NonITMGMT Cannot open application'
p436
g2
tp437
a(S'NonITMGMT Need assistance in opening PST files in Outlook'
p438
g2
tp439
a(S'NonITMGMT User request find user on search from outlook'
p440
g2
tp441
a(S'REQ #7006175 - PC 5059'
p442
g2
tp443
a(S'REQ #7006254 - NonITMGMT The end user reports that cannot see the calendar of his manager.'
p444
g2
tp445
a(S'REQ #7017469 - NonITMGMT unable to open outlook or owa'
p446
g2
tp447
a(S'REQ #7017295 - NonITMGMT Outlook mailbox size full.'
p448
g2
tp449
a(S'REQ #7012303 - PC 5051'
p450
g2
tp451
a(S'NonITMGMT outlook issue'
p452
g2
tp453
a(S'REQ #7015887 -'
p454
g2
tp455
a(S'NonITMGMT outlook issue'
p456
g2
tp457
a(S'Outlook not accessing'
p458
g2
tp459
a(S'REQ #7017006 - NonITMGMT User facing issues in outlook'
p460
g2
tp461
a(S'REQ #7011050 - NonITMGMT pst folders deleted'
p462
g2
tp463
a(S'REQ #7011050 - NonITMGMT pst folders deleted'
p464
g2
tp465
a(S'REQ #6999660 - NonITMGMT Generic Inbox Unavailable'
p466
g2
tp467
a(S'REQ #6985623 - PC 5344'
p468
g2
tp469
a(S'REQ #7015382 - NonITMGMT Unable to launch outlook 2010'
p470
g2
tp471
a(S'REQ #7015382 - NonITMGMT Unable to launch outlook 2010'
p472
g2
tp473
a(S"REQ #7016694 - NonITMGMT Can't open outlook."
p474
g2
tp475
a(S'REQ #6982218 - NonITMGMT Unable to open outlook'
p476
g2
tp477
a(S'REQ #6982218 - NonITMGMT Unable to open outlook'
p478
g2
tp479
a(S'REQ #7015909 - NonITMGMT unable to login to outlook client'
p480
g2
tp481
a(S'REQ #6998378 - PC 5059'
p482
g2
tp483
a(S'REQ #7007151 - PC 5297'
p484
g2
tp485
a(S'NonITMGMT User request configure his outlook'
p486
g2
tp487
a(S'REQ #7016356 - NonITMGMT ost file has been damaged'
p488
g2
tp489
a(S'REQ #7016121 - PC 6519'
p490
g2
tp491
a(S'REQ #6998996 - NonITMGMT Workflow approval in Outlook Error Message'
p492
g2
tp493
a(S'REQ #7009626 - NonITMGMT MAILBOX FULL'
p494
g2
tp495
a(S'REQ #7004733 - NonITMGMT user having issues with outlook'
p496
g2
tp497
a(S'REQ #7004733 - NonITMGMT user having issues with outlook'
p498
g2
tp499
a(S'REQ #7001111 - NonITMGMT Error when logging into email error message'
p500
g2
tp501
a(S'REQ #7015988 - NonITMGMT User is not receiving vote notifications.'
p502
g2
tp503
a(S'REQ #7015787 - NonITMGMT Unable to create meeting in outlook using webex'
p504
g2
tp505
a(S'REQ #7015839 - NonITMGMT unable to access pst folders'
p506
g2
tp507
a(S'NonITMGMT User needs the owner of the shared drive'
p508
g2
tp509
a(S'REQ #7015546 - NonITMGMT outlook'
p510
g2
tp511
a(S'REQ #7015521 - NonITMGMT outlook not opening'
p512
g2
tp513
a(S'REQ #7015250 - NonITMGMT User unable to access the outlook'
p514
g2
tp515
a(S'REQ #7015250 - NonITMGMT User unable to access the outlook'
p516
g2
tp517
a(S'REQ #7011814 - NonITMGMT outlook issue'
p518
g2
tp519
a(S'REQ #7011814 - NonITMGMT outlook issue'
p520
g2
tp521
a(S'User does not see PST folder in outlook'
p522
g2
tp523
a(S'REQ #7015455 - NonITMGMT outlook'
p524
g2
tp525
a(S'NonITMGMT Unable to open outlook'
p526
g2
tp527
a(S'REQ #7015316 - NonITMGMT New Outlook account was not working'
p528
g2
tp529
a(S'REQ #7015181 - NonITMGMT Help with reducing Mailbox size.'
p530
g2
tp531
a(S'REQ #7015160 - NonITMGMT Webex addin was disabled'
p532
g2
tp533
a(S'REQ #7015101 - NonITMGMT impossible to open outlook'
p534
g2
tp535
a(S'REQ #7015056 - NonITMGMT Outlook is not opening up'
p536
g2
tp537
a(S'REQ #7014759 - PC 7537'
p538
g2
tp539
a(S'REQ #7014759 - PC 7537'
p540
g2
tp541
a(S'REQ #7014927 - NonITMGMT outlook not working'
p542
g2
tp543
a(S'REQ #6996726 - PC 1608'
p544
g2
tp545
a(S'REQ #7014875 - NonITMGMT unable to open outlook'
p546
g2
tp547
a(S'REQ #7009382 - NonITMGMT Outlook freezing'
p548
g2
tp549
a(S'NonITMGMT User report outlook cannot work.'
p550
g2
tp551
a(S'REQ #7014524 - NonITMGMT Outlook webex issue'
p552
g2
tp553
a(S'NonITMGMT Outlook issue'
p554
g2
tp555
a(S'REQ #7014272 - NonITMGMT outlook'
p556
g2
tp557
a(S'REQ #7014253 - NonITMGMT User unable to open the outlook'
p558
g2
tp559
a(S'REQ #6993790 - PC 9361'
p560
g2
tp561
a(S'New Joinee'
p562
g2
tp563
a(S'REQ #6976092 - PC 7524'
p564
g2
tp565
a(S'Transfer pst file from rsubra25 to nkamatch'
p566
g2
tp567
a(S'REQ #7013953 - NonITMGMT Outlook issue'
p568
g2
tp569
a(S'REQ #7013473 - NonITMGMT User called in as he was unable to send or receive the emails'
p570
g2
tp571
a(S'REQ #7013473 - NonITMGMT User called in as he was unable to send or receive the emails'
p572
g2
tp573
a(S'REQ #7013644 - NonITMGMT mutliple calendar issues'
p574
g2
tp575
a(S'REQ #7013638 - NonITMGMT Outlook doesnt start, data file settings error'
p576
g2
tp577
a(S'REQ #7013162 - NonITMGMT calendar is not working'
p578
g2
tp579
a(S'REQ #7013500 - NonITMGMT Outlook webex issue'
p580
g2
tp581
a(S'REQ #7013435 - NonITMGMT Unable to dismiss meeting, certificate error'
p582
g2
tp583
a(S'REQ #7013393 - NonITMGMT outlook offline'
p584
g2
tp585
a(S'REQ #7013287 - NonITMGMT Outlook Webex tool  is not showing'
p586
g2
tp587
a(S"REQ #7008476 - NonITMGMT can't open outlook"
p588
g2
tp589
a(S'REQ #6996261 - NonITMGMT Outlook issue'
p590
g2
tp591
a(S'REQ #6996261 - NonITMGMT Outlook issue'
p592
g2
tp593
a(S'REQ #7013226 - NonITMGMT outlook issue'
p594
g2
tp595
a(S'REQ #6996862 - NonITMGMT unable to open outlook'
p596
g2
tp597
a(S'REQ #6996862 - NonITMGMT unable to open outlook'
p598
g2
tp599
a(S"REQ #7008237 - NonITMGMT Can't open outlook."
p600
g2
tp601
a(S"REQ #7008237 - NonITMGMT Can't open outlook."
p602
g2
tp603
a(S'REQ #7013111 - NonITMGMT User called in as his Outlook was not working'
p604
g2
tp605
a(S'REQ #7013051 - PC 5298'
p606
g2
tp607
a(S'REQ #7013051 - PC 5298'
p608
g2
tp609
a(S'REQ #7013039 - NonITMGMT outlook not have WebEx.'
p610
g2
tp611
a(S'Larger mailbox required.  I have scheduled in regular clean ups t'
p612
g2
tp613
a(S'MobileIron registration PIN'
p614
g2
tp615
a(S'I can not access my email on any computer.'
p616
g2
tp617
a(S'NonITMGMT pst files missing.'
p618
g2
tp619
a(S'REQ #7007975 - NonITMGMT change mail saving path to local drive'
p620
g2
tp621
a(S'NonITMGMT outlook issue'
p622
g2
tp623
a(S'Can not Export Private Key'
p624
g2
tp625
a(S"REQ #6994454 - NonITMGMT Outlook Today Doesn't Show Details"
p626
g2
tp627
a(S'missing PST folder'
p628
g2
tp629
a(S'NonITMGMT windows security icon is popping often'
p630
g2
tp631
a(S'need to increase the size of the mail box'
p632
g2
tp633
a(S'REQ #7012819 - NonITMGMT Unable to send webex meeting request'
p634
g2
tp635
a(S'We cannot access the newhire2 mailbox.'
p636
g2
tp637
a(S'NonITMGMT Unable to access Outlook'
p638
g2
tp639
a(S'NonITMGMT Outlook pop up issue asking for credentials frequently.'
p640
g2
tp641
a(S'REQ #7012708 - NonITMGMT webex icon missing outlook'
p642
g2
tp643
a(S'REQ #7012632 - NonITMGMT User is getting error to open links in emails.'
p644
g2
tp645
a(S'NonITMGMT Cannot to open encrypted email'
p646
g2
tp647
a(S'User says meeting notices in the calendar got disappeared'
p648
g2
tp649
a(S'Unable to open Outlook'
p650
g2
tp651
a(S'REQ #7012355 - NonITMGMT pst file got corrupted'
p652
g2
tp653
a(S'Emails on android phone'
p654
g2
tp655
a(S'REQ #7006302 - PC 5441'
p656
g2
tp657
a(S'Unable to open outlook'
p658
g2
tp659
a(S'Outlook mail box size increase.'
p660
g2
tp661
a(S'REQ #6947393 - FPS - S1 - NonITMGMT Outlook keeps crashing'
p662
g2
tp663
a(S'REQ #7003385 - ValSig Need add the ChemSignature into Font block'
p664
g2
tp665
a(S'REQ #6999736 - NonITMGMT Cannot log into outlook'
p666
g2
tp667
a(S'REQ #6984528 - NonITMGMT cant start outlook.'
p668
g2
tp669
a(S'REQ #6984528 - NonITMGMT cant start outlook.'
p670
g2
tp671
a(S'NonITMGMT outlook issue'
p672
g2
tp673
a(S"REQ #7005123 - NonITMGMT Can't access outlook."
p674
g2
tp675
a(S"REQ #7005123 - NonITMGMT Can't access outlook."
p676
g2
tp677
a(S'REQ #7011830 - NonITMGMT User unable to open outlook'
p678
g2
tp679
a(S'REQ #7011693 -'
p680
g2
tp681
a(S'REQ #7006027 - PC 5215'
p682
g2
tp683
a(S'NonITMGMT unable to find the outlook icon'
p684
g2
tp685
a(S'REQ #7004603 - NonITMGMT Could not log in'
p686
g2
tp687
a(S'REQ #7011350 - NonITMGMT outlook issue'
p688
g2
tp689
a(S'NonITMGMT Outlook Profile creation'
p690
g2
tp691
a(S'REQ #6999825 - PC 5136'
p692
g2
tp693
a(S'REQ #6998751 - NonITMGMT Error Message when approving Sharepoint document'
p694
g2
tp695
a(S'REQ #6998673 - PC 5208'
p696
g2
tp697
a(S'REQ #7010879 - NonITMGMT Outlook configuration'
p698
g2
tp699
a(S'NonITMGMT User made contact and request configure his outlook'
p700
g2
tp701
a(S'REQ #7010771 - NonITMGMT The end user reports that cannot access her Outlook.'
p702
g2
tp703
a(S'REQ #6993388 - PC 6574'
p704
g2
tp705
a(S'REQ #6983115 - PC 3317'
p706
g2
tp707
a(S'REQ #7010602 - NonITMGMT Outlook not opening'
p708
g2
tp709
a(S'NonITMGMT Unable to send email with cdsid from outlook'
p710
g2
tp711
a(S'REQ #7010542 - NonITMGMT outlook error'
p712
g2
tp713
a(S'REQ #7005686 - NonITMGMT Outlook Issue .pst file'
p714
g2
tp715
a(S'REQ #7005686 - NonITMGMT Outlook Issue .pst file'
p716
g2
tp717
a(S'REQ #6985473 - PC 4124'
p718
g2
tp719
a(S'REQ #7008545 - NonITMGMT User needs to map a generic id FSAFINES to his Outlook'
p720
g2
tp721
a(S'REQ #7008545 - NonITMGMT User needs to map a generic id FSAFINES to his Outlook'
p722
g2
tp723
a(S'REQ #7008645 - NonITMGMT id mapping'
p724
g2
tp725
a(S'REQ #6984170 - PC 5076'
p726
g2
tp727
a(S'NonITMGMT Outlook canlendar issue'
p728
g2
tp729
a(S'NonITMGMT Need to create PST files'
p730
g2
tp731
a(S"REQ #7002664 - NonITMGMT The 'message recall' functionality has disappeared."
p732
g2
tp733
a(S'REQ #7009160 - NonITMGMT unable to open outlook, server is unavailable'
p734
g2
tp735
a(S'REQ #7009160 - NonITMGMT unable to open outlook, server is unavailable'
p736
g2
tp737
a(S'REQ #7008653 - NonITMGMT outlook is in offline mode'
p738
g2
tp739
a(S'REQ #7008653 - NonITMGMT outlook is in offline mode'
p740
g2
tp741
a(S'NonITMGMT Outlook Query'
p742
g2
tp743
a(S'NonITMGMT Outlook issue'
p744
g2
tp745
a(S'REQ #7004259 - PC 6967'
p746
g2
tp747
a(S'REQ #6986628 - PC 6978'
p748
g2
tp749
a(S'REQ #7009062 - NonITMGMT outlook'
p750
g2
tp751
a(S'REQ #7008852 - NonITMGMT unable to open outlook'
p752
g2
tp753
a(S'REQ #7008688 - NonITMGMT OST file damaged'
p754
g2
tp755
a(S'REQ #6997716 - NonITMGMT Cannot start Outlook. Cannot open Outlook window.'
p756
g2
tp757
a(S'REQ #6986310 - NonITMGMT outlook not working'
p758
g2
tp759
a(S'REQ #7001750 - NonITMGMT outlook always stuck'
p760
g2
tp761
a(S'REQ #7008173 - NonITMGMT impossible to open outllok'
p762
g2
tp763
a(S'REQ #7008130 - NonITMGMT outlook issue'
p764
g2
tp765
a(S'REQ #7008033 - NonITMGMT mailbox full'
p766
g2
tp767
a(S'REQ #7007955 - NonITMGMT Unable to open outlook'
p768
g2
tp769
a(S'REQ #7007661 - NonITMGMT czhang38 helped user do the archive'
p770
g2
tp771
a(S'REQ #7007661 - NonITMGMT czhang38 helped user do the archive'
p772
g2
tp773
a(S'REQ #6981916 - PC 7524'
p774
g2
tp775
a(S'REQ #6981916 - PC 7524'
p776
g2
tp777
a(S'Unable to login on fmail.ford.com'
p778
g2
tp779
a(S"REQ #7002336 - NonITMGMT can't start OUTLOOK"
p780
g2
tp781
a(S'NonITMGMT The end user requests to configure the Webex add-in from Outlook.'
p782
g2
tp783
a(S'REQ #7007309 - NonITMGMT unable to delete any emails from outlook error message comes that'
p784
g2
tp785
a(S'REQ #7007309 - NonITMGMT unable to delete any emails from outlook error message comes that'
p786
g2
tp787
a(S'NonITMGMT User requested to map a new account outlook on your system'
p788
g2
tp789
a(S'Unable to read encypted email on iPhone'
p790
g2
tp791
a(S"Can't read attachment"
p792
g2
tp793
a(S'" You do not have smartphone registration priviledge, check with'
p794
g2
tp795
a(S'cannot get into 2 folders on my account'
p796
g2
tp797
a(S'REQ #7002904 - PC 6769'
p798
g2
tp799
a(S'my email is full i only have 200MB'
p800
g2
tp801
a(S'Unable to open Outlook'
p802
g2
tp803
a(S'Need additional email storage space'
p804
g2
tp805
a(S'REQ #7000667 - NonITMGMT Outlook today is blank again...  Same issue fixed last week'
p806
g2
tp807
a(S'REQ #7005279 - PC 6574'
p808
g2
tp809
a(S'cannot log on'
p810
g2
tp811
a(S'NonITMGMT outlook failing to sign in'
p812
g2
tp813
a(S'REQ #6998227 - NonITMGMT outlook not showing up details'
p814
g2
tp815
a(S'REQ #6998227 - NonITMGMT outlook not showing up details'
p816
g2
tp817
a(S'NonITMGMT outlook issue'
p818
g2
tp819
a(S'REQ #7001621 - PC 6135'
p820
g2
tp821
a(S'REQ #7006946 - NonITMGMT User is unable to access outlook'
p822
g2
tp823
a(S'NonITMGMT outlook profile missing'
p824
g2
tp825
a(S'Update SSL Cert on new MobileIron Sentry Servers'
p826
g2
tp827
a(S'NonITMGMT Mailbox Size Inquiry'
p828
g2
tp829
a(S'REQ #7004218 - NonITMGMT unable to see the created pst'
p830
g2
tp831
a(S'REQ #7004218 - NonITMGMT unable to see the created pst'
p832
g2
tp833
a(S'the final step of the password prompt is not coming up.'
p834
g2
tp835
a(S'User needs help in booking Conference room by Online'
p836
g2
tp837
a(S'Access of Generic Outlook Mailboxes through Web'
p838
g2
tp839
a(S'REQ #7000442 - NonITMGMT Outlook issue'
p840
g2
tp841
a(S'REQ #7000442 - NonITMGMT Outlook issue'
p842
g2
tp843
a(S'REQ #7006701 - NonITMGMT User facing issue with outlook'
p844
g2
tp845
a(S'REQ #6974180 - PC 5050'
p846
g2
tp847
a(S'REQ #6974180 - PC 5050'
p848
g2
tp849
a(S'NonITMGMT outlook password prompt issue'
p850
g2
tp851
a(S'REQ #7006542 - NonITMGMT No access to webex tool'
p852
g2
tp853
a(S'REQ #7006518 -'
p854
g2
tp855
a(S'NonITMGMT user stated that the computer is performing very slow'
p856
g2
tp857
a(S'REQ #7006494 - NonITMGMT Configure profile'
p858
g2
tp859
a(S'REQ #6994567 - PC 6703'
p860
g2
tp861
a(S'NonITMGMT Userr request configure the proofing tools'
p862
g2
tp863
a(S'Unable to access Outlook . Error message is generating'
p864
g2
tp865
a(S'REQ #7006059 - NonITMGMT unable to delete email'
p866
g2
tp867
a(S'REQ #7006059 - NonITMGMT unable to delete email'
p868
g2
tp869
a(S'NonITMGMT User not able to open outlook.'
p870
g2
tp871
a(S"REQ #6979007 - NonITMGMT Constant 'Not Responding', emails stuck in Outbox"
p872
g2
tp873
a(S'REQ #7006040 - NonITMGMT Outlook login issue'
p874
g2
tp875
a(S'REQ #7006038 - NonITMGMT Error while closing the outlook'
p876
g2
tp877
a(S'REQ #7005981 - NonITMGMT Outlook not working'
p878
g2
tp879
a(S'REQ #6990399 - NonITMGMT pdf attachments will not all print'
p880
g2
tp881
a(S'NonITMGMT User wants to Know about the PC Renewal Process'
p882
g2
tp883
a(S'REQ #6999691 - NonITMGMT unable to open the outlook'
p884
g2
tp885
a(S'REQ #6999691 - NonITMGMT unable to open the outlook'
p886
g2
tp887
a(S'REQ #7005808 - NonITMGMT Outlook not working'
p888
g2
tp889
a(S'NonITMGMT Coporate iPhone emails'
p890
g2
tp891
a(S'REQ #7005142 -'
p892
g2
tp893
a(S'REQ #7005380 - NonITMGMT outlook'
p894
g2
tp895
a(S'REQ #6989968 - NonITMGMT Outlook today and spell check are broken'
p896
g2
tp897
a(S'REQ #7004587 - NonITMGMT Unable to configure outlook'
p898
g2
tp899
a(S'REQ #7004587 - NonITMGMT Unable to configure outlook'
p900
g2
tp901
a(S'Unable to access Outlook. Getting error.'
p902
g2
tp903
a(S'REQ #7004329 - PC 5215'
p904
g2
tp905
a(S'REQ #7004329 - PC 5215'
p906
g2
tp907
a(S'REQ #7004780 - NonITMGMT User called in as the emails in the archieved folder is cleared'
p908
g2
tp909
a(S'REQ #7005031 - NonITMGMT webex not working'
p910
g2
tp911
a(S'REQ #7004927 - NonITMGMT Issue: OUtlook'
p912
g2
tp913
a(S'REQ #7001021 - NonITMGMT excel nbot having right click.'
p914
g2
tp915
a(S'REQ #7001021 - NonITMGMT excel nbot having right click.'
p916
g2
tp917
a(S'REQ #6999096 - PC 5063'
p918
g2
tp919
a(S'REQ #6999096 - PC 5063'
p920
g2
tp921
a(S'REQ #6978386 - PC 5170'
p922
g2
tp923
a(S'REQ #7003294 - NonITMGMT MS Outlook 2010 will not start on new user desktop'
p924
g2
tp925
a(S'REQ #7000124 - NonITMGMT Issue: Pst issue'
p926
g2
tp927
a(S'REQ #7000124 - NonITMGMT Issue: Pst issue'
p928
g2
tp929
a(S'REQ #7004380 - NonITMGMT Mailbox issue'
p930
g2
tp931
a(S'REQ #7004293 - NonITMGMT outlook issue'
p932
g2
tp933
a(S'NonITMGMT User Query'
p934
g2
tp935
a(S'REQ #7004164 - NonITMGMT outlook showing status disconnected'
p936
g2
tp937
a(S'REQ #6998324 - PC 7517'
p938
g2
tp939
a(S'REQ #7004099 - NonITMGMT not able to open pst file'
p940
g2
tp941
a(S'REQ #7004099 - NonITMGMT not able to open pst file'
p942
g2
tp943
a(S'REQ #6996895 - NonITMGMT User receive spam mails in his inbox'
p944
g2
tp945
a(S'NonITMGMT webex button missing'
p946
g2
tp947
a(S'NonITMGMT Unable to Open Outlook'
p948
g2
tp949
a(S'REQ #7003970 - NonITMGMT Fonts on email body are very small.'
p950
g2
tp951
a(S'REQ #7003980 - NonITMGMT outlook issue'
p952
g2
tp953
a(S'REQ #6993378 - PC 7098'
p954
g2
tp955
a(S'REQ #7003925 - NonITMGMT outlook'
p956
g2
tp957
a(S'REQ #7003893 - NonITMGMT Outlook not working from home'
p958
g2
tp959
a(S'REQ #7003833 - NonITMGMT Cannot open Outlook'
p960
g2
tp961
a(S'REQ #7000929 - NonITMGMT MS Outlook 2013 is not updating'
p962
g2
tp963
a(S'REQ #7000929 - NonITMGMT MS Outlook 2013 is not updating'
p964
g2
tp965
a(S'Unable to configure outlook'
p966
g2
tp967
a(S"REQ #6998665 - NonITMGMT Outlook search isn't working"
p968
g2
tp969
a(S"REQ #6998665 - NonITMGMT Outlook search isn't working"
p970
g2
tp971
a(S'REQ #7003213 - NonITMGMT Gneric ID profile properties issue'
p972
g2
tp973
a(S'REQ #6991475 - PC 7130'
p974
g2
tp975
a(S'REQ #6991345 - PC 7097'
p976
g2
tp977
a(S'REQ #6997927 - NonITMGMT Outlook PST issue'
p978
g2
tp979
a(S'REQ #6997927 - NonITMGMT Outlook PST issue'
p980
g2
tp981
a(S'REQ #7003522 - NonITMGMT The user cannot run Outlook.'
p982
g2
tp983
a(S'REQ #7003398 - NonITMGMT Create a new profile'
p984
g2
tp985
a(S'REQ #6998576 - NonITMGMT user unable to open outlook'
p986
g2
tp987
a(S'REQ #6998576 - NonITMGMT user unable to open outlook'
p988
g2
tp989
a(S'REQ #7003373 - NonITMGMT Outlook not working'
p990
g2
tp991
a(S'NonITMGMT outlook error'
p992
g2
tp993
a(S'REQ #6975764 - PC 7134'
p994
g2
tp995
a(S'NonITMGMT Webex invitation format error'
p996
g2
tp997
a(S'REQ #7003165 - NonITMGMT Outlook profile picture'
p998
g2
tp999
a(S'REQ #6976081 - PC 7562'
p1000
g2
tp1001
a(S'Cannot access fmail.ford.com'
p1002
g2
tp1003
a(S'Install Microsoft Outlook 2010 Version:  OS: W7'
p1004
g2
tp1005
a(S'REQ #7002944 - NonITMGMT User called in as he was unable to login to the Outlook'
p1006
g2
tp1007
a(S'REQ #6960966 - PC 7517'
p1008
g2
tp1009
a(S'REQ #6960966 - PC 7517'
p1010
g2
tp1011
a(S'REQ #7001896 - NonITMGMT My Outlook is not working from last week.'
p1012
g2
tp1013
a(S'REQ #7002776 - NonITMGMT outlook prompt for password'
p1014
g2
tp1015
a(S'REQ #6920810 - PC 7279'
p1016
g2
tp1017
a(S'REQ #6998138 - NonITMGMT Outlook launch issue'
p1018
g2
tp1019
a(S'REQ #6998138 - NonITMGMT Outlook launch issue'
p1020
g2
tp1021
a(S'REQ #6980760 - NonITMGMT I cannot shedule a Web ex meeting thru my outlook'
p1022
g2
tp1023
a(S'REQ #6991353 - NonITMGMT Outlook working very slow'
p1024
g2
tp1025
a(S'REQ #6991353 - NonITMGMT Outlook working very slow'
p1026
g2
tp1027
a(S'REQ #6986075 - NonITMGMT Meeting requests are not getting updated in calender'
p1028
g2
tp1029
a(S'NonITMGMT Outlook issue'
p1030
g2
tp1031
a(S'REQ #7002464 - NonITMGMT Outlook reminder windows dont go away'
p1032
g2
tp1033
a(S'REQ #6970053 - PC 7561'
p1034
g2
tp1035
a(S'NonITMGMT Outlook access'
p1036
g2
tp1037
a(S'NonITMGMT Outlook issue'
p1038
g2
tp1039
a(S'NonITMGMT outlook error'
p1040
g2
tp1041
a(S'NonITMGMT User report cannot startup outlook'
p1042
g2
tp1043
a(S'NonITMGMT Outlook can not search'
p1044
g2
tp1045
a(S'REQ #6986860 - NonITMGMT unable to access outlook'
p1046
g2
tp1047
a(S'REQ #6995773 - PC 9571'
p1048
g2
tp1049
a(S'REQ #6996238 - PC 6769'
p1050
g2
tp1051
a(S"REQ #7001919 - NonITMGMT user's outlook can't work normally"
p1052
g2
tp1053
a(S"REQ #7001919 - NonITMGMT user's outlook can't work normally"
p1054
g2
tp1055
a(S'REQ #7002209 - NonITMGMT user stated that the outlook search option is not working'
p1056
g2
tp1057
a(S'REQ #6981924 - NonITMGMT Unable to open the outlook'
p1058
g2
tp1059
a(S'REQ #6981924 - NonITMGMT Unable to open the outlook'
p1060
g2
tp1061
a(S'REQ #6996554 - NonITMGMT user request on site check his outlook'
p1062
g2
tp1063
a(S'REQ #6996554 - NonITMGMT user request on site check his outlook'
p1064
g2
tp1065
a(S'I can no longer see any of my schedule meeting notice in my Outlo'
p1066
g2
tp1067
a(S'Increase mailbox size'
p1068
g2
tp1069
a(S"I'm getting an error that Outlook Data File (.pst) is at max size"
p1070
g2
tp1071
a(S'NonITMGMT Unable to open outlook'
p1072
g2
tp1073
a(S'Access to encrypted emails via a generic outlook inbox'
p1074
g2
tp1075
a(S'Unable to mail using Ford Webmail link'
p1076
g2
tp1077
a(S'Install Microsoft Outlook 2010 Version:  OS: Windows 7'
p1078
g2
tp1079
a(S'NonITMGMT Webex add-in'
p1080
g2
tp1081
a(S'NonITMGMT Sync tips'
p1082
g2
tp1083
a(S'REQ #7001713 - NonITMGMT outlook issue'
p1084
g2
tp1085
a(S'REQ #7001713 - NonITMGMT outlook issue'
p1086
g2
tp1087
a(S'Please increase my mailbox size to 5GB'
p1088
g2
tp1089
a(S'REQ #7001678 - NonITMGMT webex icon missing from outlook'
p1090
g2
tp1091
a(S'NonITMGMT How to create a pst'
p1092
g2
tp1093
a(S'NonITMGMT user had an issue with opening the outlook'
p1094
g2
tp1095
a(S'NonITMGMT outlook issue'
p1096
g2
tp1097
a(S'REQ #7001598 - NonITMGMT User is unable to open outlook'
p1098
g2
tp1099
a(S'REQ #6946323 - PC 5093'
p1100
g2
tp1101
a(S'REQ #6946323 - PC 5093'
p1102
g2
tp1103
a(S'NonITMGMT unable to open email'
p1104
g2
tp1105
a(S'REQ #6982267 - NonITMGMT I am getting a message that my Outlook server is not available'
p1106
g2
tp1107
a(S'REQ #7001406 - NonITMGMT The end user reports that cannot clean space from her Outlook.'
p1108
g2
tp1109
a(S'REQ #6987244 - NonITMGMT OUtlook issue'
p1110
g2
tp1111
a(S'REQ #6987244 - NonITMGMT OUtlook issue'
p1112
g2
tp1113
a(S'User requested assistance to cleanup mailbox and create a new PST'
p1114
g2
tp1115
a(S'REQ #7001289 - NonITMGMT User cant use webex'
p1116
g2
tp1117
a(S'NonITMGMT User is from Local IT Need 2013 configuration details'
p1118
g2
tp1119
a(S'unable to open saved pst file.'
p1120
g2
tp1121
a(S'Unable to open PST of Generic ID (wsfcipl@ford.com)'
p1122
g2
tp1123
a(S'REQ #6989897 - NonITMGMT Outlook 2013 keeps crashing, especially when searching'
p1124
g2
tp1125
a(S'NonITMGMT installation certificates'
p1126
g2
tp1127
a(S"NonITMGMT Can't open outlook."
p1128
g2
tp1129
a(S'REQ #6995996 - NonITMGMT User called for Outlook 2010 Issue'
p1130
g2
tp1131
a(S'REQ #6995996 - NonITMGMT User called for Outlook 2010 Issue'
p1132
g2
tp1133
a(S'NonITMGMT Unable to access outlook'
p1134
g2
tp1135
a(S'native email setup on iphone'
p1136
g2
tp1137
a(S'REQ #6989591 - NonITMGMT outlook stoped working'
p1138
g2
tp1139
a(S'REQ #7000893 - NonITMGMT Outlook 2013 Issue'
p1140
g2
tp1141
a(S'REQ #6953413 - RCB - S2 - NonITMGMT outlook does not launch'
p1142
g2
tp1143
a(S'REQ #6953413 - RCB - S2 - NonITMGMT outlook does not launch'
p1144
g2
tp1145
a(S'NonITMGMT certificate installation'
p1146
g2
tp1147
a(S'NonITMGMT outlook not launching'
p1148
g2
tp1149
a(S'NonITMGMT unable to open outlook'
p1150
g2
tp1151
a(S'REQ #6984430 - NonITMGMT User called for Outlook Issue'
p1152
g2
tp1153
a(S'REQ #6984430 - NonITMGMT User called for Outlook Issue'
p1154
g2
tp1155
a(S'REQ #7000707 - NonITMGMT User cant access outlook for first time'
p1156
g2
tp1157
a(S'NonITMGMT digital certificate install pop up'
p1158
g2
tp1159
a(S'REQ #7000419 - NonITMGMT Outlook 2010 Issue'
p1160
g2
tp1161
a(S'REQ #6977641 - NonITMGMT Outlook Today is not displaying any info.'
p1162
g2
tp1163
a(S'NonITMGMT Webex button'
p1164
g2
tp1165
a(S'REQ #6989934 - NonITMGMT Outlook will not open on PC'
p1166
g2
tp1167
a(S'REQ #6989560 - PC 2303'
p1168
g2
tp1169
a(S'REQ #7000302 - NonITMGMT unable to open outlook'
p1170
g2
tp1171
a(S'NonITMGMT Request for orientation.'
p1172
g2
tp1173
a(S'REQ #7000228 - NonITMGMT unable to open outlook'
p1174
g2
tp1175
a(S'NonITMGMT Pop up for password in outlook'
p1176
g2
tp1177
a(S'REQ #7000188 - NonITMGMT unable to open outlook'
p1178
g2
tp1179
a(S'REQ #6995109 - NonITMGMT outlook malfunction'
p1180
g2
tp1181
a(S'NonITMGMT unable to create a pst in C drive'
p1182
g2
tp1183
a(S"REQ #6977183 - NonITMGMT User can't configure his account in MS Outlook"
p1184
g2
tp1185
a(S"REQ #6977183 - NonITMGMT User can't configure his account in MS Outlook"
p1186
g2
tp1187
a(S'NonITMGMT Request to have WebEx One Click Meeting plugin installed on his computer'
p1188
g2
tp1189
a(S'REQ #6999789 -'
p1190
g2
tp1191
a(S'REQ #6993395 - PC 5215'
p1192
g2
tp1193
a(S'REQ #6988587 - NonITMGMT Cannot connect to exchange server. Please check the connection'
p1194
g2
tp1195
a(S'REQ #6983709 - NonITMGMT Outlook Today summary of Calendar, Inbox and tasks gone blank'
p1196
g2
tp1197
a(S'REQ #6994313 - PC 5036'
p1198
g2
tp1199
a(S"REQ #6992763 - NonITMGMT User can't access MS Outlook"
p1200
g2
tp1201
a(S"REQ #6992763 - NonITMGMT User can't access MS Outlook"
p1202
g2
tp1203
a(S'REQ #6999156 - NonITMGMT Webex addin n ot showing in outlook'
p1204
g2
tp1205
a(S'Touchdown stopped syncing'
p1206
g2
tp1207
a(S'REQ #6982167 - NonITMGMT outlook not working'
p1208
g2
tp1209
a(S'REQ #6988827 - PC 5180'
p1210
g2
tp1211
a(S'REQ #6998828 - NonITMGMT OUTLOOK ERROR'
p1212
g2
tp1213
a(S'REQ #6998555 - NonITMGMT outlook issue'
p1214
g2
tp1215
a(S'REQ #6990175 - NonITMGMT outlook does not not launch'
p1216
g2
tp1217
a(S'REQ #6990175 - NonITMGMT outlook does not not launch'
p1218
g2
tp1219
a(S'REQ #6986878 - NonITMGMT unable to open outlook'
p1220
g2
tp1221
a(S'REQ #6986878 - NonITMGMT unable to open outlook'
p1222
g2
tp1223
a(S'Install Microsoft Outlook 2010 Version:  OS: W7'
p1224
g2
tp1225
a(S'REQ #6998013 - NonITMGMT Unable to open outlook'
p1226
g2
tp1227
a(S'REQ #6997826 - NonITMGMT outlook login error'
p1228
g2
tp1229
a(S'REQ #6997744 - NonITMGMT User called in as he was facing an issue with the Outlook'
p1230
g2
tp1231
a(S'NonITMGMT Outlook issue'
p1232
g2
tp1233
a(S'REQ #6997728 - NonITMGMT Webex issue oneclick issue'
p1234
g2
tp1235
a(S'x REQ #6959497 - PC 5284'
p1236
g2
tp1237
a(S'x REQ #6959497 - PC 5284'
p1238
g2
tp1239
a(S'REQ #6996684 - PC 7528'
p1240
g2
tp1241
a(S'REQ #6883274 - PC 7524'
p1242
g2
tp1243
a(S'REQ #6883274 - PC 7524'
p1244
g2
tp1245
a(S'REQ #6883274 - PC 7524'
p1246
g2
tp1247
a(S'REQ #6996678 - NonITMGMT User called in as he was facing an issue with he Outlook'
p1248
g2
tp1249
a(S'REQ #6996678 - NonITMGMT User called in as he was facing an issue with he Outlook'
p1250
g2
tp1251
a(S"REQ #6997424 - NonITMGMT user's profile does not start"
p1252
g2
tp1253
a(S'REQ #6997335 - NonITMGMT unable to open outlook'
p1254
g2
tp1255
a(S'REQ #6980490 - NonITMGMT unable to open Microsoft Outlook'
p1256
g2
tp1257
a(S'REQ #6997208 - NonITMGMT Unable to open Outlook'
p1258
g2
tp1259
a(S'REQ #6986691 - NonITMGMT Outlook issue'
p1260
g2
tp1261
a(S'REQ #6996950 - NonITMGMT Cant use Outlook- Outlook is in offline mode'
p1262
g2
tp1263
a(S'REQ #6996687 - NonITMGMT Outlook issue'
p1264
g2
tp1265
a(S'REQ #6996664 - NonITMGMT  the deleted items it says synchronisarion error.'
p1266
g2
tp1267
a(S'REQ #6996674 - NonITMGMT outlook not working'
p1268
g2
tp1269
a(S'REQ #6996491 - NonITMGMT Unable to open outlook'
p1270
g2
tp1271
a(S"REQ #6996626 - NonITMGMT user's outlook can't work"
p1272
g2
tp1273
a(S"REQ #6996626 - NonITMGMT user's outlook can't work"
p1274
g2
tp1275
a(S"REQ #6996341 - NonITMGMT user's outlook can't work"
p1276
g2
tp1277
a(S"REQ #6996341 - NonITMGMT user's outlook can't work"
p1278
g2
tp1279
a(S'REQ #6995670 - NonITMGMT unable to login to fmail'
p1280
g2
tp1281
a(S'NonITMGMT want to move data from outlook'
p1282
g2
tp1283
a(S'Opening local and network .pst files'
p1284
g2
tp1285
a(S'increase mailbix size'
p1286
g2
tp1287
a(S'Microsoft Outlook not loading'
p1288
g2
tp1289
a(S"Can't open this item. Your Digital ID name can not be found"
p1290
g2
tp1291
a(S'REQ #6963808 - NonITMGMT Outlook keeps prompting for password'
p1292
g2
tp1293
a(S'NonITMGMT outlook issue'
p1294
g2
tp1295
a(S'Unable to open outlook'
p1296
g2
tp1297
a(S'Mailbox size needs to be increased.'
p1298
g2
tp1299
a(S'REQ #6946889 - NonITMGMT Cannot open individual occurrences of Outlook Webex meetings'
p1300
g2
tp1301
a(S'REQ #6989426 - NonITMGMT unable to open outlook'
p1302
g2
tp1303
a(S'REQ #6989426 - NonITMGMT unable to open outlook'
p1304
g2
tp1305
a(S'REQ #6972680 - NonITMGMT Cannot Open due to errors involving Y:Drive File Storage'
p1306
g2
tp1307
a(S'fmail is not working'
p1308
g2
tp1309
a(S'REQ #6985282 - PC 5076'
p1310
g2
tp1311
a(S'REQ #6983071 - NonITMGMT Outlook freezes when I try to open a meeting notice'
p1312
g2
tp1313
a(S'REQ #6984622 - PC 5298'
p1314
g2
tp1315
a(S'REQ #6984480 - NonITMGMT User is unable to access outlook'
p1316
g2
tp1317
a(S'REQ #6984480 - NonITMGMT User is unable to access outlook'
p1318
g2
tp1319
a(S'REQ #6938590 - PC 5036'
p1320
g2
tp1321
a(S'REQ #6938590 - PC 5036'
p1322
g2
tp1323
a(S'REQ #6989992 - PC 5003'
p1324
g2
tp1325
a(S'Create a new personal folder.'
p1326
g2
tp1327
a(S'REQ #6955405 - NonITMGMT Emails are not sync with server on laptop'
p1328
g2
tp1329
a(S'REQ #6994569 - NonITMGMT unable to find webex meeting center in outlook'
p1330
g2
tp1331
a(S'NonITMGMT does not see encrypt option'
p1332
g2
tp1333
a(S'REQ #6994501 - NonITMGMT Not possible to access to webex'
p1334
g2
tp1335
a(S'REQ #6963472 - NonITMGMT User reports that Outlook is not open and is stopping'
p1336
g2
tp1337
a(S'REQ #6983339 - NonITMGMT Losing connection'
p1338
g2
tp1339
a(S'REQ #6984468 - NonITMGMT Outlook Synchronization Issue'
p1340
g2
tp1341
a(S'REQ #6984468 - NonITMGMT Outlook Synchronization Issue'
p1342
g2
tp1343
a(S'NonITMGMT Outlook Profile creation'
p1344
g2
tp1345
a(S'REQ #6979816 - NonITMGMT Need Webex linked to Outlook'
p1346
g2
tp1347
a(S'REQ #6994169 - NonITMGMT Outlook keeps asking for credentials'
p1348
g2
tp1349
a(S'REQ #6988429 - PC 4150'
p1350
g2
tp1351
a(S'REQ #6993644 - NonITMGMT user unabel to see the webex icon on outlook'
p1352
g2
tp1353
a(S'NonITMGMT Unable to open outlook'
p1354
g2
tp1355
a(S'Unable receive any mails in outlook'
p1356
g2
tp1357
a(S'REQ #6966732 - NonITMGMT Outlook 2013 Calendar time line doesnt move forward'
p1358
g2
tp1359
a(S'REQ #6988512 - NonITMGMT Everytime undock outlook freezes up and has to be restarted'
p1360
g2
tp1361
a(S'NonITMGMT Unable to start outlook'
p1362
g2
tp1363
a(S'REQ #6993456 - NonITMGMT webex missing in outlook'
p1364
g2
tp1365
a(S'REQ #6993341 - NonITMGMT could not open outlook'
p1366
g2
tp1367
a(S'REQ #6979031 - NonITMGMT outlook not opening'
p1368
g2
tp1369
a(S'REQ #6979031 - NonITMGMT outlook not opening'
p1370
g2
tp1371
a(S'REQ #6990025 - NonITMGMT New user is unable to access outlook.'
p1372
g2
tp1373
a(S'NonITMGMT Recover Deleted Items'
p1374
g2
tp1375
a(S'REQ #6993000 - NonITMGMT outlook is not opening up'
p1376
g2
tp1377
a(S'REQ #6989272 - NonITMGMT unable to open the outlook'
p1378
g2
tp1379
a(S'REQ #6989272 - NonITMGMT unable to open the outlook'
p1380
g2
tp1381
a(S'NonITMGMT Unable to Open outlook'
p1382
g2
tp1383
a(S'REQ #6992558 - NonITMGMT unable to open outlook'
p1384
g2
tp1385
a(S'REQ #6992529 - NonITMGMT outlook not working'
p1386
g2
tp1387
a(S'Mailbox not receiving any mail'
p1388
g2
tp1389
a(S'REQ #6960422 - NonITMGMT Unable to start outlook'
p1390
g2
tp1391
a(S'REQ #6991442 - PC 7538'
p1392
g2
tp1393
a(S'REQ #6991442 - PC 7538'
p1394
g2
tp1395
a(S'NonITMGMT Set webex hosts'
p1396
g2
tp1397
a(S'REQ #6975035 - NonITMGMT Outlook issue'
p1398
g2
tp1399
a(S'NonITMGMT Need helped in creating PST files'
p1400
g2
tp1401
a(S'REQ #6986044 - PC 6651'
p1402
g2
tp1403
a(S'REQ #6986044 - PC 6651'
p1404
g2
tp1405
a(S'REQ #6960023 - PC 7528'
p1406
g2
tp1407
a(S'REQ #6991270 - NonITMGMT unable to receive emails'
p1408
g2
tp1409
a(S'REQ #6991243 - NonITMGMT Outlook issue'
p1410
g2
tp1411
a(S'REQ #6991152 - NonITMGMT Unable to open a meeting'
p1412
g2
tp1413
a(S'NonITMGMT outlook unable to open'
p1414
g2
tp1415
a(S'REQ #6977216 - PC 6651'
p1416
g2
tp1417
a(S'NonITMGMT keep getting pop up box asking me if I want to download the address book fo'
p1418
g2
tp1419
a(S'REQ #6990843 - NonITMGMT Lost access to back up files'
p1420
g2
tp1421
a(S'Large Personal Folders in Outlook Missing'
p1422
g2
tp1423
a(S'REQ #6985865 - NonITMGMT issue with outlook'
p1424
g2
tp1425
a(S'REQ #6985865 - NonITMGMT issue with outlook'
p1426
g2
tp1427
a(S'NonITMGMT Mailbox is over the size limit'
p1428
g2
tp1429
a(S'REQ #6990803 - NonITMGMT Unable to open outlook'
p1430
g2
tp1431
a(S'NonITMGMT Setup outlook'
p1432
g2
tp1433
a(S'NonITMGMT unable to see who sent the emails'
p1434
g2
tp1435
a(S'User got a New Laptop Can not open up the Calendar'
p1436
g2
tp1437
a(S'NonITMGMT outlook issue'
p1438
g2
tp1439
a(S'REQ #6988303 - PC 5063'
p1440
g2
tp1441
a(S'REQ #6988303 - PC 5063'
p1442
g2
tp1443
a(S'REQ #6963774 - NonITMGMT Seldom emails in outlook, or excel or any other doc does not open'
p1444
g2
tp1445
a(S'NonITMGMT pst mapping'
p1446
g2
tp1447
a(S'REQ #6988120 - NonITMGMT Re-occurence of meeting'
p1448
g2
tp1449
a(S'REQ #6988120 - NonITMGMT Re-occurence of meeting'
p1450
g2
tp1451
a(S'NonITMGMT webex icon missing in outlook.'
p1452
g2
tp1453
a(S'REQ #6970542 - PC 6100'
p1454
g2
tp1455
a(S'REQ #6979426 - NonITMGMT Unable to log in Outlook'
p1456
g2
tp1457
a(S'REQ #6979405 - NonITMGMT Unable to log in Outlook'
p1458
g2
tp1459
a(S'REQ #6978125 - 5275 - NonITMGMT unable to login to outlook'
p1460
g2
tp1461
a(S'REQ #6978125 - 5275 - NonITMGMT unable to login to outlook'
p1462
g2
tp1463
a(S'REQ #6979384 - NonITMGMT Unable to log in Outlook'
p1464
g2
tp1465
a(S'Outlook Zugang wegen Kolonnenf\xfchrer T\xe4tigkeiten'
p1466
g2
tp1467
a(S'REQ #6972912 - NonITMGMT Outlook 2010,Excel and Brwoser issue'
p1468
g2
tp1469
a(S'REQ #6972912 - NonITMGMT Outlook 2010,Excel and Brwoser issue'
p1470
g2
tp1471
a(S'REQ #6988006 - NonITMGMT Outlook .OST file corrupted'
p1472
g2
tp1473
a(S'NonITMGMT Password is not in synch with the outlook'
p1474
g2
tp1475
a(S'NonITMGMT Unable to Outlook'
p1476
g2
tp1477
a(S'REQ #6987358 - NonITMGMT Outlook Today is not populating with information.'
p1478
g2
tp1479
a(S'REQ #6977628 - NonITMGMT Unable to access email archive folder'
p1480
g2
tp1481
a(S'REQ #6960528 - PC 5283'
p1482
g2
tp1483
a(S'REQ #6989658 - NonITMGMT Error to delete meeting'
p1484
g2
tp1485
a(S'NonITMGMT Error for open Outlook'
p1486
g2
tp1487
a(S'REQ #6989479 - NonITMGMT unable to open outlook'
p1488
g2
tp1489
a(S'REQ #6989486 - NonITMGMT Configure profile'
p1490
g2
tp1491
a(S'NonITMGMT outlokk access not working'
p1492
g2
tp1493
a(S'NonITMGMT User requested assistance to create a net personal folder in Outlook.'
p1494
g2
tp1495
a(S'REQ #6983199 - PC 5068'
p1496
g2
tp1497
a(S'REQ #6983199 - PC 5068'
p1498
g2
tp1499
a(S'NonITMGMT problems with his outlook'
p1500
g2
tp1501
a(S'REQ #6984181 - NonITMGMT Unable to open outlook'
p1502
g2
tp1503
a(S'REQ #6984181 - NonITMGMT Unable to open outlook'
p1504
g2
tp1505
a(S'REQ #6984842 - PC 5067'
p1506
g2
tp1507
a(S'REQ #6989158 - NonITMGMT Webex unable to open'
p1508
g2
tp1509
a(S'REQ #6960900 - NonITMGMT The mailbox fills up instantly'
p1510
g2
tp1511
a(S'REQ #6984662 - PC 6553'
p1512
g2
tp1513
a(S'REQ #6988440 - NonITMGMT User facing issue with outlook'
p1514
g2
tp1515
a(S'REQ #6988440 - NonITMGMT User facing issue with outlook'
p1516
g2
tp1517
a(S'NonITMGMT Change conference room owner'
p1518
g2
tp1519
a(S'REQ #6988830 - NonITMGMT unable to move files'
p1520
g2
tp1521
a(S'NonITMGMT calendar booking error'
p1522
g2
tp1523
a(S'REQ #6978461 - NonITMGMT Printing error'
p1524
g2
tp1525
a(S'NonITMGMT provide access for agents to crcwarra@ford.com'
p1526
g2
tp1527
a(S'NonITMGMT Please grant access to meeting room calendars in Cologne-Merkenich'
p1528
g2
tp1529
a(S'NonITMGMT emails stuck from moning till afternoon'
p1530
g2
tp1531
a(S'REQ #6986078 - NonITMGMT issue with the machine'
p1532
g2
tp1533
a(S'REQ #6986078 - NonITMGMT issue with the machine'
p1534
g2
tp1535
a(S'REQ #6988533 -'
p1536
g2
tp1537
a(S'PD REQ #6970507 - NonITMGMT Outlook does not work'
p1538
g2
tp1539
a(S'REQ #6971290 - NonITMGMT User reports that can not set up the email account.'
p1540
g2
tp1541
a(S'REQ #6988356 - NonITMGMT outlook issue'
p1542
g2
tp1543
a(S'REQ #6983550 - NonITMGMT User reports that Outlook is not open and is stopping'
p1544
g2
tp1545
a(S'NonITMGMT Please remove access to the FOA HO TC accounts, when room bookings being ma'
p1546
g2
tp1547
a(S'REQ #6978980 - NonITMGMT Outlook Search not returning complete results'
p1548
g2
tp1549
a(S'REQ #6978980 - NonITMGMT Outlook Search not returning complete results'
p1550
g2
tp1551
a(S'REQ #6981962 - NonITMGMT Microsoft Outlook is not working'
p1552
g2
tp1553
a(S'REQ #6981962 - NonITMGMT Microsoft Outlook is not working'
p1554
g2
tp1555
a(S'REQ #6969987 - NonITMGMT which I can access though, of not existing therein mails shows me'
p1556
g2
tp1557
a(S'REQ #6987939 - NonITMGMT Unable to Open Outlook'
p1558
g2
tp1559
a(S'REQ #6987978 - NonITMGMT The user called facing an issue with Outlook.'
p1560
g2
tp1561
a(S'NonITMGMT Unable to access email via fmail.ford.com'
p1562
g2
tp1563
a(S'REQ #6985440 - NonITMGMT Outlook offline address book error'
p1564
g2
tp1565
a(S'REQ #6961012 - PC 9250'
p1566
g2
tp1567
a(S'REQ #6987621 - NonITMGMT webex not reflecting in outlook'
p1568
g2
tp1569
a(S'REQ #6977932 -Warley NonITMGMT unable to move emails'
p1570
g2
tp1571
a(S'REQ #6977932 -Warley NonITMGMT unable to move emails'
p1572
g2
tp1573
a(S'REQ #6970521 - Warley NonITMGMT Unable to open the outlook client'
p1574
g2
tp1575
a(S'REQ #6981929 - NonITMGMT issue with outlook and hod application.'
p1576
g2
tp1577
a(S'REQ #6981929 - NonITMGMT issue with outlook and hod application.'
p1578
g2
tp1579
a(S'REQ #6985924 - NonITMGMT issue with outlook'
p1580
g2
tp1581
a(S'REQ #6985924 - NonITMGMT issue with outlook'
p1582
g2
tp1583
a(S'REQ #6987333 - NonITMGMT unable to find webex icon'
p1584
g2
tp1585
a(S'REQ #6981303 - NonITMGMT User called in as she was unable to open the .PST file'
p1586
g2
tp1587
a(S'REQ #6981303 - NonITMGMT User called in as she was unable to open the .PST file'
p1588
g2
tp1589
a(S'REQ #6987139 - NonITMGMT unable to open outlook'
p1590
g2
tp1591
a(S'REQ #6986938 - NonITMGMT unable to send emails'
p1592
g2
tp1593
a(S'REQ #6987027 - NonITMGMT unable to open outlook'
p1594
g2
tp1595
a(S'NonITMGMT issue with outlook'
p1596
g2
tp1597
a(S'REQ #6986845 - NonITMGMT Unable to open outlook'
p1598
g2
tp1599
a(S'REQ #6986479 - NonITMGMT webex issue'
p1600
g2
tp1601
a(S'REQ #6981347 - NonITMGMT outlook issue'
p1602
g2
tp1603
a(S"NonITMGMT User report it would showsender's full email address when user replay email"
p1604
g2
tp1605
a(S'NonITMGMT outlook issue'
p1606
g2
tp1607
a(S'REQ #6986009 - NonITMGMT Unable to connect to outlook'
p1608
g2
tp1609
a(S'REQ #6985743 - NonITMGMT ymin3 helped user fix outlook issue'
p1610
g2
tp1611
a(S'REQ #6985743 - NonITMGMT ymin3 helped user fix outlook issue'
p1612
g2
tp1613
a(S'REQ #6981288 - NonITMGMT Indexing option is not working'
p1614
g2
tp1615
a(S'REQ #6981288 - NonITMGMT Indexing option is not working'
p1616
g2
tp1617
a(S'REQ #6985752 - NonITMGMT Outlook issue'
p1618
g2
tp1619
a(S'REQ #6985752 - NonITMGMT Outlook issue'
p1620
g2
tp1621
a(S'REQ #6985790 - NonITMGMT Outlook issue'
p1622
g2
tp1623
a(S"REQ #6985674 - NonITMGMT can't open outlook"
p1624
g2
tp1625
a(S'NonITMGMT User reports that Outlook is not open and is stopping'
p1626
g2
tp1627
a(S'NonITMGMT User reports that Outlook is not open and is stopping'
p1628
g2
tp1629
a(S'NonITMGMT User reports that Outlook is not open and is stopping'
p1630
g2
tp1631
a(S'NonITMGMT User reports that Outlook is not open and is stopping'
p1632
g2
tp1633
a(S'NonITMGMT User reports that Outlook is not open and is stopping'
p1634
g2
tp1635
a(S'NonITMGMT how to add an extra email account on user computer'
p1636
g2
tp1637
a(S'REQ #6985443 - NonITMGMT User facing issue with webex icon outlook'
p1638
g2
tp1639
a(S'REQ #6985389 - NonITMGMT Configure profile'
p1640
g2
tp1641
a(S"NonITMGMT user can't archieve emails to local"
p1642
g2
tp1643
a(S'NonITMGMT unable to open outlook'
p1644
g2
tp1645
a(S'REQ #6985227 - NonITMGMT Unable to access outlook'
p1646
g2
tp1647
a(S'NonITMGMT Change owner of a conference room'
p1648
g2
tp1649
a(S'NonITMGMT Need to increase mailbox size on Outlook 2010.'
p1650
g2
tp1651
a(S'REQ #6985095 - NonITMGMT outlook not starting'
p1652
g2
tp1653
a(S'NonITMGMT meeting scheduling issue in confernrce room-VEMC Garage Conf Room'
p1654
g2
tp1655
a(S'REQ #6962239 - NonITMGMT OBMHELP mailbox unable to expand folders permissions denied'
p1656
g2
tp1657
a(S'NonITMGMT Outlook Profile creation'
p1658
g2
tp1659
a(S'NonITMGMT User called in as she was facing an issue with the Outlook'
p1660
g2
tp1661
a(S"NonITMGMT No connection error whey attempting to view other's calendars"
p1662
g2
tp1663
a(S'REQ #6982712 - NonITMGMT Outlook wont open'
p1664
g2
tp1665
a(S'REQ #6982712 - NonITMGMT Outlook wont open'
p1666
g2
tp1667
a(S'REQ #6984815 - NonITMGMT Cannot access on the application'
p1668
g2
tp1669
a(S'REQ #6974269 - NonITMGMT Outlook 2013 will not Open - See attachment for error'
p1670
g2
tp1671
a(S'NonITMGMT outlook not starting up'
p1672
g2
tp1673
a(S'NonITMGMT I have a new last name and CDS ID but Outlook still shows my old CDS ID'
p1674
g2
tp1675
a(S'NonITMGMT User reports that outlook crashes when want to use webex'
p1676
g2
tp1677
a(S'REQ #6972369 - NonITMGMT Search no longer working. Always return "No matches found for.."'
p1678
g2
tp1679
a(S'REQ #6971261 - PC 5344'
p1680
g2
tp1681
a(S'REQ #6958221 - NonITMGMT Outlook Today is Blank'
p1682
g2
tp1683
a(S"NonITMGMT User's image is rotated"
p1684
g2
tp1685
a(S'REQ #6950310 - PC 5000'
p1686
g2
tp1687
a(S'NonITMGMT recover deleted folders'
p1688
g2
tp1689
a(S'NonITMGMT Storage increase'
p1690
g2
tp1691
a(S'The official pst is not getting opened up.'
p1692
g2
tp1693
a(S'NonITMGMT Dir. Manufacturing FoM request to increase  space of the account jislas2'
p1694
g2
tp1695
a(S'REQ #6938964 - NonITMGMT Outlookl credentials must be re-entered about once every hour'
p1696
g2
tp1697
a(S'REQ #6962418 - NonITMGMT User unable to open outlook'
p1698
g2
tp1699
a(S'REQ #6962418 - NonITMGMT User unable to open outlook'
p1700
g2
tp1701
a(S'NonITMGMT The user cannot access to Outlook'
p1702
g2
tp1703
a(S'NonITMGMT User do not have admin rights to copy Tnsnames.ora'
p1704
g2
tp1705
a(S'NonITMGMT Outlook slow'
p1706
g2
tp1707
a(S'NonITMGMT The Director CORE CENTRALS PD Mexico request to increase space of the accou'
p1708
g2
tp1709
a(S'REQ #6976626 - PC 1608'
p1710
g2
tp1711
a(S'NonITMGMT The Director, Purchasing/MP&L  request to increase space of the account lto'
p1712
g2
tp1713
a(S'NonITMGMT THE USER NEED INCREASE THE MAILBOX'
p1714
g2
tp1715
a(S'REQ #6974454 - PC 5171'
p1716
g2
tp1717
a(S'NonITMGMT Change conference room owner'
p1718
g2
tp1719
a(S'NonITMGMT Please increase my Outlook storage from 200MB'
p1720
g2
tp1721
a(S'REQ #6983916 - NonITMGMT Unable to configure outlook'
p1722
g2
tp1723
a(S'REQ #6979733 - NonITMGMT Cannot open my Outlook Email archive pst'
p1724
g2
tp1725
a(S'Please kindly move PST folder to new system'
p1726
g2
tp1727
a(S'The Outlook data file (.PST) reached the maximum size'
p1728
g2
tp1729
a(S'REQ #6983720 - NonITMGMT outlook'
p1730
g2
tp1731
a(S'NonITMGMT Need to communicate Turbo Small Group data'
p1732
g2
tp1733
a(S'REQ #6983629 - NonITMGMT Unable to open outlook.'
p1734
g2
tp1735
a(S'REQ #6974051 - NonITMGMT User reports that Outlook is not open and is stopping'
p1736
g2
tp1737
a(S'REQ #6974593 - PC 5051'
p1738
g2
tp1739
a(S'REQ #6974593 - PC 5051'
p1740
g2
tp1741
a(S'REQ #6961202 - NonITMGMT outlook wont open after pc renewal'
p1742
g2
tp1743
a(S'REQ #6965279 - NonITMGMT Outlook today view is blank'
p1744
g2
tp1745
a(S'REQ #6971127 - NonITMGMT Connectivity issue - receiving synchronisation error emails'
p1746
g2
tp1747
a(S'Request for mailbox sized increase'
p1748
g2
tp1749
a(S'REQ #6975629 - PC 9303'
p1750
g2
tp1751
a(S'NonITMGMT outlook issue'
p1752
g2
tp1753
a(S'REQ #6971002 - PC 6978'
p1754
g2
tp1755
a(S'REQ #6978365 - PC 6978'
p1756
g2
tp1757
a(S'REQ #6982431 - NonITMGMT OST Error'
p1758
g2
tp1759
a(S'REQ #6982440 - NonITMGMT outlook is not synching'
p1760
g2
tp1761
a(S'NonITMGMT User need a outlook access'
p1762
g2
tp1763
a(S'REQ #6975532 - PC 6982'
p1764
g2
tp1765
a(S'Add user TTUPUHI to be a delegate of 6 conference rooms'
p1766
g2
tp1767
a(S'Mail Box Size to be increased from 200 MB to 1 GB'
p1768
g2
tp1769
a(S'NonITMGMT New Plant Manager admin needs owner rights'
p1770
g2
tp1771
a(S'NonITMGMT User report outlook meeting cannot work.'
p1772
g2
tp1773
a(S'Outlook to be confihured in the laptop.'
p1774
g2
tp1775
a(S'REQ #6970215 - NonITMGMT issue with outlook application'
p1776
g2
tp1777
a(S'REQ #6970215 - NonITMGMT issue with outlook application'
p1778
g2
tp1779
a(S'NonITMGMT Outlook'
p1780
g2
tp1781
a(S'REQ #6981856 - NonITMGMT OST error'
p1782
g2
tp1783
a(S'NonITMGMT Outlook'
p1784
g2
tp1785
a(S'REQ #6981568 - PC 7538'
p1786
g2
tp1787
a(S'REQ #6981568 - PC 7538'
p1788
g2
tp1789
a(S'REQ #6981691 - NonITMGMT Unable To Open Outlook'
p1790
g2
tp1791
a(S'REQ #6966195 - NonITMGMT The user cannot open application'
p1792
g2
tp1793
a(S'REQ #6981579 - NonITMGMT Unable to Open outlook'
p1794
g2
tp1795
a(S'NonITMGMT need to book a conference room'
p1796
g2
tp1797
a(S'REQ #6981466 - NonITMGMT OST error'
p1798
g2
tp1799
a(S'REQ #6981395 - NonITMGMT Unable to open outlook.'
p1800
g2
tp1801
a(S'REQ #6981224 - NonITMGMT outlook'
p1802
g2
tp1803
a(S'REQ #6953960 - PC 7506'
p1804
g2
tp1805
a(S'REQ #6953960 - PC 7506'
p1806
g2
tp1807
a(S'REQ #6981208 - NonITMGMT Outlook is not opening'
p1808
g2
tp1809
a(S'REQ #6981189 - NonITMGMT webex add in missing'
p1810
g2
tp1811
a(S'NonITMGMT set up another outlook profile'
p1812
g2
tp1813
a(S'REQ #6969725 - PC 7539'
p1814
g2
tp1815
a(S'REQ #6976377 - NonITMGMT issue with outlook application'
p1816
g2
tp1817
a(S'REQ #6976377 - NonITMGMT issue with outlook application'
p1818
g2
tp1819
a(S'REQ #6963956 - PC 7506'
p1820
g2
tp1821
a(S'REQ #6980561 - NonITMGMT user wants to remove photo from outlook'
p1822
g2
tp1823
a(S'REQ #6961346 - PC 7524'
p1824
g2
tp1825
a(S'REQ #6949912 - PC 7517'
p1826
g2
tp1827
a(S'REQ #6949912 - PC 7517'
p1828
g2
tp1829
a(S'REQ #6968528 - NonITMGMT Indexing not working in Outlook'
p1830
g2
tp1831
a(S'REQ #6968528 - NonITMGMT Indexing not working in Outlook'
p1832
g2
tp1833
a(S'REQ #6975816 - NonITMGMT Outlook isnt working'
p1834
g2
tp1835
a(S'REQ #6980391 - NonITMGMT webex mail has messy code'
p1836
g2
tp1837
a(S'REQ #6980413 - NonITMGMT Outlook issue'
p1838
g2
tp1839
a(S'NonITMGMT User reports that Outlook is not open and is stopping'
p1840
g2
tp1841
a(S'NonITMGMT The end user requests to configure an extra account on her outlook.'
p1842
g2
tp1843
a(S'NonITMGMT outlook issue'
p1844
g2
tp1845
a(S'NonITMGMT user had an issue with opening the outlook'
p1846
g2
tp1847
a(S'NonITMGMT No OUTlook access'
p1848
g2
tp1849
a(S'Unable to receive emails'
p1850
g2
tp1851
a(S'NonITMGMT recovering deleted emails from folder'
p1852
g2
tp1853
a(S'REQ #6962867 - NonITMGMT outlook not working'
p1854
g2
tp1855
a(S'REQ #6962867 - NonITMGMT outlook not working'
p1856
g2
tp1857
a(S'REQ #6962063 - NonITMGMT cant move email to pst folder'
p1858
g2
tp1859
a(S'REQ #6957563 - NonITMGMT The end user reports that cannot attach files to the emails.'
p1860
g2
tp1861
a(S'NonITMGMT Outlook Profile creation'
p1862
g2
tp1863
a(S'NonITMGMT The end user reports that cannot open his Outlook correctly.'
p1864
g2
tp1865
a(S'REQ #6973713 - NonITMGMT Microsoft outlook freezes from meeting requests'
p1866
g2
tp1867
a(S'REQ #6979911 - NonITMGMT one of the pst files on Y drive got corrupted and unable to load'
p1868
g2
tp1869
a(S'REQ #6962276 - NonITMGMT unable to send emails'
p1870
g2
tp1871
a(S'REQ #6962276 - NonITMGMT unable to send emails'
p1872
g2
tp1873
a(S'unable to access owa website'
p1874
g2
tp1875
a(S'error while accessing OWA website'
p1876
g2
tp1877
a(S'NonITMGMT want to create more space for the emails'
p1878
g2
tp1879
a(S'NonITMGMT outlook issue'
p1880
g2
tp1881
a(S'REQ #6973811 - NonITMGMT Pst folders are missing from outlook'
p1882
g2
tp1883
a(S'REQ #6973811 - NonITMGMT Pst folders are missing from outlook'
p1884
g2
tp1885
a(S'REQ #6973370 - NonITMGMT User uninstalled 2013 and INSTALLED Office 2010'
p1886
g2
tp1887
a(S'REQ #6973370 - NonITMGMT User uninstalled 2013 and INSTALLED Office 2010'
p1888
g2
tp1889
a(S'REQ #6979795 - NonITMGMT webex addin missing in Outlook'
p1890
g2
tp1891
a(S'MobileIron issue'
p1892
g2
tp1893
a(S'REQ #6977015 - NonITMGMT Unable to open outlook'
p1894
g2
tp1895
a(S'REQ #6977039 - NonITMGMT Unable to open outlook'
p1896
g2
tp1897
a(S'NonITMGMT enquiry'
p1898
g2
tp1899
a(S'REQ #6977087 - NonITMGMT Unable to open outlook'
p1900
g2
tp1901
a(S'NonITMGMT unable to move emails to folder'
p1902
g2
tp1903
a(S'REQ #6962658 - NonITMGMT contacts and meetings got deleted from calender'
p1904
g2
tp1905
a(S'REQ #6962658 - NonITMGMT contacts and meetings got deleted from calender'
p1906
g2
tp1907
a(S'REQ #6946715 - NonITMGMT outlook issue'
p1908
g2
tp1909
a(S'REQ #6946715 - NonITMGMT outlook issue'
p1910
g2
tp1911
a(S'NonITMGMT outlook not working'
p1912
g2
tp1913
a(S'mailbox size needed increasing'
p1914
g2
tp1915
a(S'NonITMGMT outlook issue'
p1916
g2
tp1917
a(S'REQ #6979229 - NonITMGMT Outlook is not working.'
p1918
g2
tp1919
a(S'NonITMGMT not able to login qwa since rassword not synchronized'
p1920
g2
tp1921
a(S'Could you please increase the mailbox size for the user.'
p1922
g2
tp1923
a(S'REQ #6966752 - NonITMGMT I have lost the ability to schedule WebEx Meetings'
p1924
g2
tp1925
a(S'REQ #6976587 - NonITMGMT User cannot connect to Outlook'
p1926
g2
tp1927
a(S'REQ #6976587 - NonITMGMT User cannot connect to Outlook'
p1928
g2
tp1929
a(S'NonITMGMT outlook is not opening up'
p1930
g2
tp1931
a(S'REQ #6965684 - NonITMGMT Outlook search returns No matches found'
p1932
g2
tp1933
a(S'NonITMGMT outlook web applicaiotn'
p1934
g2
tp1935
a(S'REQ #6973766 - PC 5091'
p1936
g2
tp1937
a(S'REQ #6978616 - NonITMGMT Cannot open the application'
p1938
g2
tp1939
a(S'REQ #6956933 - PC 5093'
p1940
g2
tp1941
a(S'REQ #6960610 - PC 5093'
p1942
g2
tp1943
a(S'REQ #6952714 - NonITMGMT outlook not working fine'
p1944
g2
tp1945
a(S'REQ #6978113 - NonITMGMT Unable to see emails in the inbox'
p1946
g2
tp1947
a(S'NonITMGMT Outlook issue'
p1948
g2
tp1949
a(S'REQ #6978059 - NonITMGMT unable to start outlook'
p1950
g2
tp1951
a(S'REQ #6948104 - PC 5045 -'
p1952
g2
tp1953
a(S'REQ #6972617 - 3302 cant open email attach'
p1954
g2
tp1955
a(S'REQ #6972617 - 3302 cant open email attach'
p1956
g2
tp1957
a(S'REQ #6977855 - NonITMGMT User facing issue with outlook login'
p1958
g2
tp1959
a(S'REQ #6977758 - NonITMGMT Outlook 2013 needs to be removed for Admin'
p1960
g2
tp1961
a(S'email & scaning Other works'
p1962
g2
tp1963
a(S'REQ #6977779 - NonITMGMT Unable to add Delegates to generic mailbox'
p1964
g2
tp1965
a(S'REQ #6977730 - NonITMGMT Outlook does not work'
p1966
g2
tp1967
a(S'REQ #6977635 - NonITMGMT The end user reports that cannot open his outlook correctly.'
p1968
g2
tp1969
a(S'REQ #6976454 - NonITMGMT The user cannot open application'
p1970
g2
tp1971
a(S'REQ #6977646 - NonITMGMT webex not reflecting in outlook'
p1972
g2
tp1973
a(S'REQ #6977574 - NonITMGMT webex icon missing in outlook'
p1974
g2
tp1975
a(S'REQ #6973495 - NonITMGMT unable to print'
p1976
g2
tp1977
a(S'REQ #6973495 - NonITMGMT unable to print'
p1978
g2
tp1979
a(S'REQ #6976473 - NonITMGMT unable to open outlook'
p1980
g2
tp1981
a(S'REQ #6976473 - NonITMGMT unable to open outlook'
p1982
g2
tp1983
a(S'REQ #6914599 - NonITMGMT Outlook home page does not display'
p1984
g2
tp1985
a(S'REQ #6926468 - NonITMGMT Suggested contact issue'
p1986
g2
tp1987
a(S'REQ #6926468 - NonITMGMT Suggested contact issue'
p1988
g2
tp1989
a(S'REQ #6942022 - NonITMGMT Can not start Microsoft Outlook 2010'
p1990
g2
tp1991
a(S'REQ #6962211 - NonITMGMT WebEx will not allow text added to meeting notice'
p1992
g2
tp1993
a(S'REQ #6976965 - NonITMGMT Unable to login to outlook'
p1994
g2
tp1995
a(S'REQ #6965647 - NonITMGMT Addressbook updating all time'
p1996
g2
tp1997
a(S'REQ #6976911 - NonITMGMT Calendar Problem'
p1998
g2
tp1999
a(S'PD REQ #6976406 - NonITMGMT Outlook today issue'
p2000
g2
tp2001
a(S'REQ #6976734 - NonITMGMT outlook prompting for password repeatedly'
p2002
g2
tp2003
a(S'REQ #6976755 - NonITMGMT The user called reporting an error with Outlook.'
p2004
g2
tp2005
a(S'REQ #6976603 - NonITMGMT Many issue after upgrade'
p2006
g2
tp2007
a(S'REQ #6976518 - NonITMGMT unable to open outlook'
p2008
g2
tp2009
a(S'NonITMGMT User need a outlook access'
p2010
g2
tp2011
a(S'NonITMGMT USer need Outlook acess'
p2012
g2
tp2013
a(S'NonITMGMT Config webex addin'
p2014
g2
tp2015
a(S'NonITMGMT Webex button missing via outlook'
p2016
g2
tp2017
a(S'REQ #6970704 - PC 7558'
p2018
g2
tp2019
a(S'REQ #6970704 - PC 7558'
p2020
g2
tp2021
a(S'NonITMGMT Outlook Prompts for password'
p2022
g2
tp2023
a(S'NonITMGMT Unable to open outlook'
p2024
g2
tp2025
a(S'REQ #6975788 - Warley NonITMGMT user unable to map the archived emails, as  it gets lost'
p2026
g2
tp2027
a(S'REQ #6975788 - Warley NonITMGMT user unable to map the archived emails, as  it gets lost'
p2028
g2
tp2029
a(S'NonITMGMT Outlook degradation request'
p2030
g2
tp2031
a(S'REQ #6975843 - NonITMGMT Issue with outlook'
p2032
g2
tp2033
a(S'REQ #6975843 - NonITMGMT Issue with outlook'
p2034
g2
tp2035
a(S'REQ #6975261 - NonITMGMT User called in as his Outlook was not working'
p2036
g2
tp2037
a(S'REQ #6975261 - NonITMGMT User called in as his Outlook was not working'
p2038
g2
tp2039
a(S'NonITMGMT Outlook issue'
p2040
g2
tp2041
a(S'Niehl REQ #6965218 - NonITMGMT outlook does not start'
p2042
g2
tp2043
a(S'Niehl REQ #6965218 - NonITMGMT outlook does not start'
p2044
g2
tp2045
a(S'REQ #6975957 - NonITMGMT Outlook does not start'
p2046
g2
tp2047
a(S'REQ #6975821 - NonITMGMT Outlook issue'
p2048
g2
tp2049
a(S'NonITMGMT Outlook issue'
p2050
g2
tp2051
a(S"REQ #6975711 - NonITMGMT outlook don't start"
p2052
g2
tp2053
a(S'REQ #6970546 - NonITMGMT unable to delete meetings'
p2054
g2
tp2055
a(S'Delegate Access for sp3fmt03@ford.com'
p2056
g2
tp2057
a(S'REQ #6970769 - NonITMGMT Outlook 2010 is not starting, Loading froze up.'
p2058
g2
tp2059
a(S'REQ #6970769 - NonITMGMT Outlook 2010 is not starting, Loading froze up.'
p2060
g2
tp2061
a(S'REQ #6959882 - NonITMGMT Oulook connectivity Issue'
p2062
g2
tp2063
a(S'REQ #6975416 - NonITMGMT OUtlook web access'
p2064
g2
tp2065
a(S'REQ #6975374 - NonITMGMT Unable to open outlook'
p2066
g2
tp2067
a(S'REQ #6965610 - PC 7558'
p2068
g2
tp2069
a(S'REQ #6965610 - PC 7558'
p2070
g2
tp2071
a(S'REQ #6961192 - NonITMGMT Outlook not working'
p2072
g2
tp2073
a(S'REQ #6961192 - NonITMGMT Outlook not working'
p2074
g2
tp2075
a(S'Device indicates it is non-compliant'
p2076
g2
tp2077
a(S'REQ #6975047 - NonITMGMT issue with outlook'
p2078
g2
tp2079
a(S'REQ #6924455 - PC 6631'
p2080
g2
tp2081
a(S'Personal folders is miss.'
p2082
g2
tp2083
a(S'Unable to map to cloud storage location due to error message'
p2084
g2
tp2085
a(S'NonITMGMT The end user requests to configure a second account on her Outlook.'
p2086
g2
tp2087
a(S'NonITMGMT outlook has message need code'
p2088
g2
tp2089
a(S'NonITMGMT mail box full'
p2090
g2
tp2091
a(S'NonITMGMT Mailbox is over the size limit'
p2092
g2
tp2093
a(S'REQ #6974637 - NonITMGMT Outlook keeps poping up for the password'
p2094
g2
tp2095
a(S'REQ #6952322 - NonITMGMT Microsoft Outlook functioning but Outlook Today tab is coming up'
p2096
g2
tp2097
a(S'NonITMGMT unable to open outlook'
p2098
g2
tp2099
a(S'REQ #6974507 - NonITMGMT The end user reports that cannot clean his Inbox correctly.'
p2100
g2
tp2101
a(S'REQ #6945381 - PC 5093'
p2102
g2
tp2103
a(S'REQ #6945381 - PC 5093'
p2104
g2
tp2105
a(S'unable to open pst file'
p2106
g2
tp2107
a(S'NonITMGMT outlook issue'
p2108
g2
tp2109
a(S'REQ #6951696 - NonITMGMT Unable to open "Secure" OUTLOOK notes from others.'
p2110
g2
tp2111
a(S'NonITMGMT Mailbox full'
p2112
g2
tp2113
a(S'REQ #6974313 - NonITMGMT Cannot start'
p2114
g2
tp2115
a(S'REQ #6951138 - PC 5284'
p2116
g2
tp2117
a(S'REQ #6951138 - PC 5284'
p2118
g2
tp2119
a(S'REQ #6962744 - NonITMGMT Communicator and outlook failing'
p2120
g2
tp2121
a(S'REQ #6963853 - NonITMGMT unable to open outlook after upgrade to 2013'
p2122
g2
tp2123
a(S'REQ #6963853 - NonITMGMT unable to open outlook after upgrade to 2013'
p2124
g2
tp2125
a(S'REQ #6962155 - PC 5076'
p2126
g2
tp2127
a(S'NonITMGMT outlook 2013'
p2128
g2
tp2129
a(S'Unable to open outlook'
p2130
g2
tp2131
a(S"REQ #6974079 - NonITMGMT can't open PST files on outlook"
p2132
g2
tp2133
a(S'REQ #6972014 - NonITMGMT Unable to receive emails'
p2134
g2
tp2135
a(S'NonITMGMT How to import pst files.'
p2136
g2
tp2137
a(S'REQ #6965742 - NonITMGMT Ed keeps losing access to his .pst folder'
p2138
g2
tp2139
a(S'REQ #6973835 - NonITMGMT outlook keeps getting logout after some time'
p2140
g2
tp2141
a(S'NonITMGMT outlook is not working'
p2142
g2
tp2143
a(S'REQ #6960103 - NonITMGMT Error to create OST'
p2144
g2
tp2145
a(S'REQ #6960103 - NonITMGMT Error to create OST'
p2146
g2
tp2147
a(S'REQ #6973285 - NonITMGMT Outlook Synchronizer error'
p2148
g2
tp2149
a(S'NonITMGMT outlook issue'
p2150
g2
tp2151
a(S'NonITMGMT outlook issue'
p2152
g2
tp2153
a(S"REQ #6972933 - NonITMGMT User can't open MS Outlook"
p2154
g2
tp2155
a(S"REQ #6972933 - NonITMGMT User can't open MS Outlook"
p2156
g2
tp2157
a(S'NonITMGMT Opening another mailbox with his own'
p2158
g2
tp2159
a(S"REQ #6972960 - NonITMGMT outlook don't open"
p2160
g2
tp2161
a(S"REQ #6972960 - NonITMGMT outlook don't open"
p2162
g2
tp2163
a(S'user cannot receive emails since two days'
p2164
g2
tp2165
a(S'REQ #6973492 - NonITMGMT PST is missing from the outlook'
p2166
g2
tp2167
a(S'REQ #6938071 - NonITMGMT Unable to see the contents under outlook today'
p2168
g2
tp2169
a(S'REQ #6875346 - PC 5415'
p2170
g2
tp2171
a(S'REQ #6875346 - PC 5415'
p2172
g2
tp2173
a(S'REQ #6967147 - NonITMGMT unable to open personal folders'
p2174
g2
tp2175
a(S'REQ #6973215 -'
p2176
g2
tp2177
a(S'NonITMGMT Unable to start outlook'
p2178
g2
tp2179
a(S"REQ #6973156 - NonITMGMT Shearch isn't working"
p2180
g2
tp2181
a(S'unable to Open Microsoft Outlook'
p2182
g2
tp2183
a(S'NonITMGMT issue with webex , unable to attend meeting'
p2184
g2
tp2185
a(S'REQ #6967991 - NonITMGMT daily tasks , callender events and messages missing'
p2186
g2
tp2187
a(S'REQ #6967991 - NonITMGMT daily tasks , callender events and messages missing'
p2188
g2
tp2189
a(S'REQ #6950888 - NonITMGMT unable to access pst file'
p2190
g2
tp2191
a(S'Please provide mail access to SAD1@ford.com'
p2192
g2
tp2193
a(S'NonITMGMT User needs ADP Payroll access'
p2194
g2
tp2195
a(S'NonITMGMT mailbox size issue'
p2196
g2
tp2197
a(S'NonITMGMT Outlook not starting up'
p2198
g2
tp2199
a(S'NonITMGMT Unable to open Outlook'
p2200
g2
tp2201
a(S'REQ #6965485 - PC 6050'
p2202
g2
tp2203
a(S'REQ #6972448 - NonITMGMT Outlook Today Task list view'
p2204
g2
tp2205
a(S'REQ #6972367 - NonITMGMT Unable to access outlook'
p2206
g2
tp2207
a(S'REQ #6965918 - NonITMGMT Indexing Not Working'
p2208
g2
tp2209
a(S'REQ #6961702 - PC 5298'
p2210
g2
tp2211
a(S'REQ #6961702 - PC 5298'
p2212
g2
tp2213
a(S'REQ #6952889 - PC 5215'
p2214
g2
tp2215
a(S'NonITMGMT Outlook  Pst file issue'
p2216
g2
tp2217
a(S'REQ #6965800 - PC 5064'
p2218
g2
tp2219
a(S'REQ #6965534 - PC 7135'
p2220
g2
tp2221
a(S'REQ #6969992 - PC 7134'
p2222
g2
tp2223
a(S'REQ #6971416 - NonITMGMT undo clear offline items'
p2224
g2
tp2225
a(S'REQ #6971365 - NonITMGMT user got some emails deleted from outlook'
p2226
g2
tp2227
a(S'REQ #6971119 - PC 7134'
p2228
g2
tp2229
a(S'REQ #6970603 - PC 6978'
p2230
g2
tp2231
a(S'REQ #6970603 - PC 6978'
p2232
g2
tp2233
a(S'email from unknown sender'
p2234
g2
tp2235
a(S'REQ #6965078 - PC 7129'
p2236
g2
tp2237
a(S'NonITMGMT Need Delegate access for generic CDSID'
p2238
g2
tp2239
a(S'REQ #6964919 - NonITMGMT Outlook mail box needs to cleared for extra space'
p2240
g2
tp2241
a(S'REQ #6964919 - NonITMGMT Outlook mail box needs to cleared for extra space'
p2242
g2
tp2243
a(S'Additional Mailbox Space Required'
p2244
g2
tp2245
a(S'REQ #6970581 - NonITMGMT webex add in missing'
p2246
g2
tp2247
a(S'NonITMGMT Outlook Issue'
p2248
g2
tp2249
a(S'REQ #6969456 - PC 7558'
p2250
g2
tp2251
a(S'REQ #6970229 - PC 6769'
p2252
g2
tp2253
a(S'REQ #6970345 - NonITMGMT Password Prompt Occuring Frequently'
p2254
g2
tp2255
a(S'REQ #6970327 - NonITMGMT outlook is not openning'
p2256
g2
tp2257
a(S'REQ #6969717 - NonITMGMT zhang cheng helped user fix outlook issue'
p2258
g2
tp2259
a(S'REQ #6969717 - NonITMGMT zhang cheng helped user fix outlook issue'
p2260
g2
tp2261
a(S"REQ #6970209 - NonITMGMT new employee can't open outlook"
p2262
g2
tp2263
a(S"REQ #6969699 - NonITMGMT can't open outlook"
p2264
g2
tp2265
a(S'REQ #6970111 - NonITMGMT error'
p2266
g2
tp2267
a(S'NonITMGMT issue with mailbox'
p2268
g2
tp2269
a(S'REQ #6970065 - NonITMGMT Could not able to login in to outlook'
p2270
g2
tp2271
a(S'REQ #6969920 - NonITMGMT Language changed, spellcheck and application'
p2272
g2
tp2273
a(S'x Forum #6964597 - NonITMGMT not able to start outlook'
p2274
g2
tp2275
a(S'REQ #6969850 - NonITMGMT Outlook issue'
p2276
g2
tp2277
a(S'REQ #6965769 - NonITMGMT outlook pst not moving items, stuck into outbox'
p2278
g2
tp2279
a(S'REQ #6965769 - NonITMGMT outlook pst not moving items, stuck into outbox'
p2280
g2
tp2281
a(S'REQ #6969353 - PC 6769'
p2282
g2
tp2283
a(S'REQ #6964966 - NonITMGMT Issue with outlook'
p2284
g2
tp2285
a(S'REQ #6964966 - NonITMGMT Issue with outlook'
p2286
g2
tp2287
a(S'REQ #6969646 - NonITMGMT outlook PSt file issue'
p2288
g2
tp2289
a(S'REQ #6969646 - NonITMGMT outlook PSt file issue'
p2290
g2
tp2291
a(S'REQ #6969275 - NonITMGMT zhang cheng helped user fix outlook issue'
p2292
g2
tp2293
a(S'REQ #6969275 - NonITMGMT zhang cheng helped user fix outlook issue'
p2294
g2
tp2295
a(S'REQ #6899946 - NonITMGMT system is very slow'
p2296
g2
tp2297
a(S'REQ #6899946 - NonITMGMT system is very slow'
p2298
g2
tp2299
a(S'REQ #6969242 - NonITMGMT outlook not able to sync'
p2300
g2
tp2301
a(S'REQ #6853401 - NonITMGMT WSL access during application start ends in error'
p2302
g2
tp2303
a(S'NonITMGMT Outlook issues'
p2304
g2
tp2305
a(S'NonITMGMT outlook issue'
p2306
g2
tp2307
a(S'NonITMGMT unable to open a saved pst file'
p2308
g2
tp2309
a(S'NonITMGMT Outlook issue'
p2310
g2
tp2311
a(S'REQ #6952084 - PC 6559'
p2312
g2
tp2313
a(S'NonITMGMT Customer Inquiry'
p2314
g2
tp2315
a(S'I am struggling to keep my mailbox empty enough to send emails'
p2316
g2
tp2317
a(S'REQ #6968361 - NonITMGMT The end user reports that cannot open his Outlook.'
p2318
g2
tp2319
a(S'REQ #6968334 - NonITMGMT unable to open outlook error unable to open the file'
p2320
g2
tp2321
a(S'NonITMGMT outlook issue'
p2322
g2
tp2323
a(S'REQ #6968177 - NonITMGMT The end user reports that cannot open his Outlook.'
p2324
g2
tp2325
a(S'Query: Outlook quota size'
p2326
g2
tp2327
a(S'REQ #6968160 -'
p2328
g2
tp2329
a(S'REQ #6935376 - PC 5051'
p2330
g2
tp2331
a(S'REQ #6961112 - NonITMGMT Outlook is unresponsive due to exchange server move or 5gb update'
p2332
g2
tp2333
a(S'REQ #6967814 - NonITMGMT Outlook will not open'
p2334
g2
tp2335
a(S'REQ #6967814 - NonITMGMT Outlook will not open'
p2336
g2
tp2337
a(S'Increase Mail Box size'
p2338
g2
tp2339
a(S'Mailbox is continously filling up. I receive @100+ emails daily'
p2340
g2
tp2341
a(S'Prompted to enter credentials'
p2342
g2
tp2343
a(S'REQ #6946562 - 5093 - NonITMGMT outlook not working'
p2344
g2
tp2345
a(S'REQ #6939071 - NonITMGMT Inability to attach files'
p2346
g2
tp2347
a(S'REQ #6963125 - NonITMGMT Cannot open MS Outlook 2013'
p2348
g2
tp2349
a(S'REQ #6958619 - NonITMGMT cannot activate send-on-behalf-of list on two generic inboxes'
p2350
g2
tp2351
a(S'REQ #6962854 - NonITMGMT Outlook is not working properly.'
p2352
g2
tp2353
a(S'REQ #6962854 - NonITMGMT Outlook is not working properly.'
p2354
g2
tp2355
a(S'REQ #6967770 - NonITMGMT User is facing issues in outlook'
p2356
g2
tp2357
a(S'REQ #6951924 - NonITMGMT Search Does Not List All Relevant Email Items'
p2358
g2
tp2359
a(S'REQ #6951924 - NonITMGMT Search Does Not List All Relevant Email Items'
p2360
g2
tp2361
a(S'REQ #6962871 - NonITMGMT Unable to install ADphoto program to add photos to Microsoft outl'
p2362
g2
tp2363
a(S'REQ #6958154 - PC 5051'
p2364
g2
tp2365
a(S'REQ #6966297 - NonITMGMT cant log in to outlook'
p2366
g2
tp2367
a(S'outlook issue'
p2368
g2
tp2369
a(S'REQ #6927167 - NonITMGMT user gets a blank screen on outlook today screen in outlook'
p2370
g2
tp2371
a(S'REQ #6928522 - NonITMGMT Outlook freezing'
p2372
g2
tp2373
a(S'REQ #6967233 - NonITMGMT Outlook Login Issue'
p2374
g2
tp2375
a(S'Move outlook pst file to new laptop'
p2376
g2
tp2377
a(S'Please create MobileIron account for id "PCF"'
p2378
g2
tp2379
a(S'REQ #6962998 - NonITMGMT Can not access Outlook on desktop'
p2380
g2
tp2381
a(S'REQ #6963187 - PC Bldg:5215 NonITMGMT outlook not working'
p2382
g2
tp2383
a(S'REQ #6958559 - PC 5298'
p2384
g2
tp2385
a(S'REQ #6958559 - PC 5298'
p2386
g2
tp2387
a(S'REQ #6962496 - NonITMGMT I have been trying to logon to Outlook for over 4 hours'
p2388
g2
tp2389
a(S'REQ #6957925 - NonITMGMT ms office 2010 not working'
p2390
g2
tp2391
a(S'REQ #6957925 - NonITMGMT ms office 2010 not working'
p2392
g2
tp2393
a(S'NonITMGMT Cannot to send email for SSANTIL3'
p2394
g2
tp2395
a(S'REQ #6963893 - NonITMGMT PST file corrupted'
p2396
g2
tp2397
a(S'REQ #6963481 - PC 5201'
p2398
g2
tp2399
a(S'REQ #6966783 - NonITMGMT The end user reports that was facing issues with his Outlook.'
p2400
g2
tp2401
a(S'REQ #6951344 - NonITMGMT Out of office settings are not responding as it should.'
p2402
g2
tp2403
a(S'REQ #6951344 - NonITMGMT Out of office settings are not responding as it should.'
p2404
g2
tp2405
a(S'REQ #6955994 - PC 8306'
p2406
g2
tp2407
a(S'Need to transfer pst from desktop to laptop'
p2408
g2
tp2409
a(S'REQ #6964904 - Warley 87342331 NonITMGMT issue with outlook client'
p2410
g2
tp2411
a(S'REQ #6964904 - Warley 87342331 NonITMGMT issue with outlook client'
p2412
g2
tp2413
a(S'REQ #6958098 - PC 5215'
p2414
g2
tp2415
a(S'REQ #6958098 - PC 5215'
p2416
g2
tp2417
a(S'REQ #6965563 - NonITMGMT outlook connectivity issue'
p2418
g2
tp2419
a(S'REQ #6966287 - NonITMGMT The user called reporting an error with Outlook.'
p2420
g2
tp2421
a(S'REQ #6964427 - PC 7280'
p2422
g2
tp2423
a(S'REQ #6961281 - NonITMGMT change the CDS ID of the owner of a conference room'
p2424
g2
tp2425
a(S'REQ #6961281 - NonITMGMT change the CDS ID of the owner of a conference room'
p2426
g2
tp2427
a(S'REQ #6937331 - PC 9250'
p2428
g2
tp2429
a(S'REQ #6965994 - NonITMGMT small fonts in outlook'
p2430
g2
tp2431
a(S'REQ #6957775 - NonITMGMT unable to open'
p2432
g2
tp2433
a(S'REQ #6965937 - NonITMGMT OST Error'
p2434
g2
tp2435
a(S'REQ #6964079 - NonITMGMT issue with outlook'
p2436
g2
tp2437
a(S'REQ #6964079 - NonITMGMT issue with outlook'
p2438
g2
tp2439
a(S'REQ #6965609 - NonITMGMT Cannot open the application'
p2440
g2
tp2441
a(S'NonITMGMT indexing issue'
p2442
g2
tp2443
a(S'REQ #6960039 - NonITMGMT Opening hyperlinks from mail doesnt work'
p2444
g2
tp2445
a(S'REQ #6965099 - PC 7524'
p2446
g2
tp2447
a(S'NonITMGMT not able to open the outlook'
p2448
g2
tp2449
a(S'REQ #6965220 - NonITMGMT User called in as he was unable to open the Outlook'
p2450
g2
tp2451
a(S'REQ #6962013 -8:30am start x3039 NonITMGMT Outlook giving error, dissconnected from exchange server'
p2452
g2
tp2453
a(S'REQ #6962013 -8:30am start x3039 NonITMGMT Outlook giving error, dissconnected from exchange server'
p2454
g2
tp2455
a(S'REQ #6955644 - NonITMGMT Outlook 2010 is closing while drafting email constantly.'
p2456
g2
tp2457
a(S'REQ #6955644 - NonITMGMT Outlook 2010 is closing while drafting email constantly.'
p2458
g2
tp2459
a(S'REQ #6910405 - NonITMGMT Outlook Issue'
p2460
g2
tp2461
a(S'REQ #6910405 - NonITMGMT Outlook Issue'
p2462
g2
tp2463
a(S'REQ #6964938 - NonITMGMT user unable to open outlook'
p2464
g2
tp2465
a(S'REQ #6964837 - PC 6978'
p2466
g2
tp2467
a(S'REQ #6964837 - PC 6978'
p2468
g2
tp2469
a(S'REQ #6964824 - NonITMGMT Webex meeting issue'
p2470
g2
tp2471
a(S'REQ #6954902 - PC 6978'
p2472
g2
tp2473
a(S'REQ #6964719 - NonITMGMT User called in as his Outlook was not opening up'
p2474
g2
tp2475
a(S'REQ #6955101 - PC 9250'
p2476
g2
tp2477
a(S'REQ #6964065 - NonITMGMT unable open outlook'
p2478
g2
tp2479
a(S'NonITMGMT the update of the microsoft office 2010 to 2013 the lync is not working goo'
p2480
g2
tp2481
a(S'REQ #6964640 - PC 7135'
p2482
g2
tp2483
a(S'NonITMGMT user needs the webex icon to be enabled in the computer.'
p2484
g2
tp2485
a(S'REQ #6961524 - NonITMGMT outlook 2013 is not working'
p2486
g2
tp2487
a(S'REQ #6961524 - NonITMGMT outlook 2013 is not working'
p2488
g2
tp2489
a(S'REQ #6964419 - NonITMGMT User called in as he was unable to open the Outlook'
p2490
g2
tp2491
a(S'REQ #6964419 - NonITMGMT User called in as he was unable to open the Outlook'
p2492
g2
tp2493
a(S'REQ #6937427 - NonITMGMT Unbale to Login to Outlook'
p2494
g2
tp2495
a(S'REQ #6964434 - NonITMGMT outlook reset'
p2496
g2
tp2497
a(S'REQ #6964425 - NonITMGMT calandar issue'
p2498
g2
tp2499
a(S'REQ #6961826 - NonITMGMT User says all the microsoft applications stopped working'
p2500
g2
tp2501
a(S'REQ #6961826 - NonITMGMT User says all the microsoft applications stopped working'
p2502
g2
tp2503
a(S'REQ #6959385 - NonITMGMT issue with ms office 2013'
p2504
g2
tp2505
a(S'REQ #6959385 - NonITMGMT issue with ms office 2013'
p2506
g2
tp2507
a(S'REQ #6964146 - NonITMGMT User called in as she was facing an issue with the Outlook'
p2508
g2
tp2509
a(S'REQ #6964146 - NonITMGMT User called in as she was facing an issue with the Outlook'
p2510
g2
tp2511
a(S'REQ #6964194 - NonITMGMT error msg : cannot start the ms outlook .'
p2512
g2
tp2513
a(S'REQ #6964139 - NonITMGMT User called in as she was facing an issue with the Outlook'
p2514
g2
tp2515
a(S'REQ #6935256 - NonITMGMT SYNC Issues'
p2516
g2
tp2517
a(S'REQ #6964107 - NonITMGMT Outlook not working'
p2518
g2
tp2519
a(S'REQ #6948596 - PC 6111'
p2520
g2
tp2521
a(S'REQ #6948596 - PC 6111'
p2522
g2
tp2523
a(S'Install Microsoft Outlook 2010 Version:  OS: W7'
p2524
g2
tp2525
a(S'NonITMGMT Outlook not opening up'
p2526
g2
tp2527
a(S'NonITMGMT disconnected'
p2528
g2
tp2529
a(S'REQ #6956494 - Chris Vogler* OL* locking up*PC 5051'
p2530
g2
tp2531
a(S'REQ #6963689 - NonITMGMT OST not compatable error'
p2532
g2
tp2533
a(S'NonITMGMT outlook'
p2534
g2
tp2535
a(S'REQ #6938956 - NonITMGMT Unable to sync Outlook'
p2536
g2
tp2537
a(S'REQ #6963648 - NonITMGMT Configure profile'
p2538
g2
tp2539
a(S'REQ #6963078 - NonITMGMT Meeting Update'
p2540
g2
tp2541
a(S'REQ #6963078 - NonITMGMT Meeting Update'
p2542
g2
tp2543
a(S'REQ #6950049 - NonITMGMT Rules will not show up and cannot be run.'
p2544
g2
tp2545
a(S'REQ #6957936 - NonITMGMT unable to open outlook'
p2546
g2
tp2547
a(S'REQ #6957936 - NonITMGMT unable to open outlook'
p2548
g2
tp2549
a(S'REQ #6957312 - NonITMGMT unable to open out look'
p2550
g2
tp2551
a(S'REQ #6957312 - NonITMGMT unable to open out look'
p2552
g2
tp2553
a(S'REQ #6939211 - NonITMGMT Outlook Issue'
p2554
g2
tp2555
a(S'REQ #6939211 - NonITMGMT Outlook Issue'
p2556
g2
tp2557
a(S'REQ #6963483 - NonITMGMT Unable to access outlook'
p2558
g2
tp2559
a(S'REQ #6929995 - NonITMGMT New CDS ID can not open outlook'
p2560
g2
tp2561
a(S'Install Microsoft Outlook 2010 Version:  OS: W7'
p2562
g2
tp2563
a(S'NonITMGMT outlook keeps on asking for the password'
p2564
g2
tp2565
a(S'NonITMGMT outlook issue'
p2566
g2
tp2567
a(S'REQ #6957071 - NonITMGMT User facing issue with outlook crashing'
p2568
g2
tp2569
a(S'REQ #6957071 - NonITMGMT User facing issue with outlook crashing'
p2570
g2
tp2571
a(S'REQ #6919788 - PC 5059'
p2572
g2
tp2573
a(S'NonITMGMT user had an issue with openning the outlook'
p2574
g2
tp2575
a(S'REQ #6962864 - NonITMGMT damaged the .ost'
p2576
g2
tp2577
a(S'REQ #6948471 - PC 0392'
p2578
g2
tp2579
a(S'REQ #6897982 - PC 5201'
p2580
g2
tp2581
a(S'NonITMGMT how to make a new personal folder'
p2582
g2
tp2583
a(S'REQ #6951054 - PC 3317'
p2584
g2
tp2585
a(S'REQ #6962548 - NonITMGMT Unable to open outlook'
p2586
g2
tp2587
a(S'REQ #6962455 - NonITMGMT Configure profile'
p2588
g2
tp2589
a(S'REQ #6946107 - PC 5036'
p2590
g2
tp2591
a(S'REQ #6957546 - PC 5215'
p2592
g2
tp2593
a(S'REQ #6957546 - PC 5215'
p2594
g2
tp2595
a(S'REQ #6952689 - NonITMGMT calendar not displaying'
p2596
g2
tp2597
a(S'REQ #6956862 - 8:30 NonITMGMT unable to open outlook'
p2598
g2
tp2599
a(S'REQ #6956862 - 8:30 NonITMGMT unable to open outlook'
p2600
g2
tp2601
a(S'REQ #6956862 - 8:30 NonITMGMT unable to open outlook'
p2602
g2
tp2603
a(S'Unable to access/ find my email id'
p2604
g2
tp2605
a(S'REQ #6961937 - NonITMGMT Outlook Issue'
p2606
g2
tp2607
a(S'REQ #6961830 - NonITMGMT Outlook Issue 2010'
p2608
g2
tp2609
a(S'REQ #6939690 - NonITMGMT Multiple daily errors in Outlook Synchronization log'
p2610
g2
tp2611
a(S'REQ #6913805 - Warley NonITMGMT keeps asking me to enter my password every now and then'
p2612
g2
tp2613
a(S'REQ #6913805 - Warley NonITMGMT keeps asking me to enter my password every now and then'
p2614
g2
tp2615
a(S'REQ #6947491 - NonITMGMT Outlook states memory || Christian - RCB(5s480) - 6210120 - Outlook +S2'
p2616
g2
tp2617
a(S'NonITMGMT Need to know who booked the Conference room'
p2618
g2
tp2619
a(S'REQ #6957465 - PC 6519'
p2620
g2
tp2621
a(S'REQ #6961337 - NonITMGMT User cannot open Outlook'
p2622
g2
tp2623
a(S'REQ #6944208 - NonITMGMT User called in as he was unable to retrieve the emails by searchi'
p2624
g2
tp2625
a(S'REQ #6957072 - NonITMGMT unable to access calender'
p2626
g2
tp2627
a(S'REQ #6957072 - NonITMGMT unable to access calender'
p2628
g2
tp2629
a(S'REQ #6961221 - NonITMGMT outlook slow'
p2630
g2
tp2631
a(S'REQ #6960965 - NonITMGMT Vendor manager called to report outlook access issue for BJAINULA'
p2632
g2
tp2633
a(S'REQ #6955492 - NonITMGMT outlook issue'
p2634
g2
tp2635
a(S'REQ #6955492 - NonITMGMT outlook issue'
p2636
g2
tp2637
a(S'REQ #6960533 - NonITMGMT No connection with Exchange server'
p2638
g2
tp2639
a(S'increase mail box size'
p2640
g2
tp2641
a(S'REQ #6955122 - NonITMGMT issue with outlook'
p2642
g2
tp2643
a(S'REQ #6955122 - NonITMGMT issue with outlook'
p2644
g2
tp2645
a(S'NonITMGMT need to retrieve mails which was deleted from outlook'
p2646
g2
tp2647
a(S'NonITMGMT Need transfer .pst files from old pc to new pc.'
p2648
g2
tp2649
a(S'REQ #6959936 - NonITMGMT outlook not working'
p2650
g2
tp2651
a(S'REQ #6954419 - NonITMGMT Script Error at Outlook Start-up'
p2652
g2
tp2653
a(S'REQ #6959163 - NonITMGMT cannot start the ms outlook'
p2654
g2
tp2655
a(S'REQ #6959163 - NonITMGMT cannot start the ms outlook'
p2656
g2
tp2657
a(S'REQ #6959804 - NonITMGMT user wants to update picture on outlook'
p2658
g2
tp2659
a(S'REQ #6959390 - NonITMGMT User called in as his Outlook was not opening up'
p2660
g2
tp2661
a(S'REQ #6959390 - NonITMGMT User called in as his Outlook was not opening up'
p2662
g2
tp2663
a(S'REQ #6944360 - NonITMGMT Error -"sending and receiving reported error "'
p2664
g2
tp2665
a(S'REQ #6944360 - NonITMGMT Error -"sending and receiving reported error "'
p2666
g2
tp2667
a(S'REQ #6959204 - NonITMGMT User called in as his Outlook was not working'
p2668
g2
tp2669
a(S'REQ #6959204 - NonITMGMT User called in as his Outlook was not working'
p2670
g2
tp2671
a(S'Delegate Conf rom fordeu1DSFSIR1'
p2672
g2
tp2673
a(S'REQ #6959504 - NonITMGMT Outlook is not opening after migrating to MS 2013'
p2674
g2
tp2675
a(S'REQ #6959481 - NonITMGMT User called in as his Outlook was not working'
p2676
g2
tp2677
a(S'REQ #6959418 - NonITMGMT Webex productivitiy tool disable'
p2678
g2
tp2679
a(S'REQ #6959344 - NonITMGMT issue with outlook.'
p2680
g2
tp2681
a(S'REQ #6959268 - NonITMGMT User called in as her Outlook was working very slow'
p2682
g2
tp2683
a(S'REQ #6954752 - NonITMGMT unable to send emails from outlook'
p2684
g2
tp2685
a(S'REQ #6954752 - NonITMGMT unable to send emails from outlook'
p2686
g2
tp2687
a(S'REQ #6955043 - NonITMGMT Outlook is not opening'
p2688
g2
tp2689
a(S'REQ #6955043 - NonITMGMT Outlook is not opening'
p2690
g2
tp2691
a(S'REQ #6949006 - PC 7524'
p2692
g2
tp2693
a(S'REQ #6949006 - PC 7524'
p2694
g2
tp2695
a(S'REQ #6959091 - NonITMGMT User called in as he was facing an issue with the Outlook'
p2696
g2
tp2697
a(S'REQ #6949187 - NonITMGMT Outlook connectivity issue'
p2698
g2
tp2699
a(S'REQ #6949187 - NonITMGMT Outlook connectivity issue'
p2700
g2
tp2701
a(S'NonITMGMT The end user requests to create a new PST file on her Outlook.'
p2702
g2
tp2703
a(S'REQ #6954640 - NonITMGMT Outlook disappeared'
p2704
g2
tp2705
a(S'Please create MobileIron accounts for CAID5 and CAID6'
p2706
g2
tp2707
a(S'NonITMGMT asked the user to check with his boss calender for'
p2708
g2
tp2709
a(S'NonITMGMT outlook'
p2710
g2
tp2711
a(S'Outlook freezes every single time  I try to use it - please fix'
p2712
g2
tp2713
a(S'REQ #6958844 - NonITMGMT Configure profile'
p2714
g2
tp2715
a(S'REQ #6958838 - NonITMGMT No access to Webex'
p2716
g2
tp2717
a(S'user called in saying now his company email is not working well'
p2718
g2
tp2719
a(S'REQ #6943265 - NonITMGMT Program get hung searching'
p2720
g2
tp2721
a(S'REQ #6958773 - NonITMGMT Unable to open outlook'
p2722
g2
tp2723
a(S'NonITMGMT user has issue in outlook'
p2724
g2
tp2725
a(S'NonITMGMT Outlook locked out, asking for credentials.'
p2726
g2
tp2727
a(S'NonITMGMT unbale to Launch outlook'
p2728
g2
tp2729
a(S'NonITMGMT .PST Documents on W drive belongs to previous employee.'
p2730
g2
tp2731
a(S'NonITMGMT outlook issue'
p2732
g2
tp2733
a(S'REQ #6952767 - NonITMGMT retrieve all the folders'
p2734
g2
tp2735
a(S'REQ #6952767 - NonITMGMT retrieve all the folders'
p2736
g2
tp2737
a(S'NonITMGMT outlook issue'
p2738
g2
tp2739
a(S'NonITMGMT unable to cancel webex meetings'
p2740
g2
tp2741
a(S'REQ #6958336 - NonITMGMT user unable to map pst file'
p2742
g2
tp2743
a(S'REQ #6950391 - NonITMGMT Outlook space'
p2744
g2
tp2745
a(S'NonITMGMT outlook issue'
p2746
g2
tp2747
a(S'REQ #6935498 - NonITMGMT Microsoft outlook 2010'
p2748
g2
tp2749
a(S'REQ #6935498 - NonITMGMT Microsoft outlook 2010'
p2750
g2
tp2751
a(S'REQ #6958282 - NonITMGMT outlook Issue'
p2752
g2
tp2753
a(S'REQ #6950688 - PC 3317'
p2754
g2
tp2755
a(S'Emails in PST folder got deleted with out any action'
p2756
g2
tp2757
a(S'NonITMGMT Issue: The user cannot open encrypted message.'
p2758
g2
tp2759
a(S'Couldn\xb4t access to your PST file'
p2760
g2
tp2761
a(S'NonITMGMT webex icon is not showing up in the outlook'
p2762
g2
tp2763
a(S'NonITMGMT webex icon is not showing up in the outlook'
p2764
g2
tp2765
a(S'REQ #6957186 - NonITMGMT Configure profile'
p2766
g2
tp2767
a(S'REQ #6957953 - NonITMGMT Outlook 2013 Issue'
p2768
g2
tp2769
a(S'NonITMGMT Mailbox is over the size limit'
p2770
g2
tp2771
a(S"REQ #6957717 - NonITMGMT outlook won't open"
p2772
g2
tp2773
a(S'REQ #6957641 - NonITMGMT Recover deleted items'
p2774
g2
tp2775
a(S"REQ #6956539 - NonITMGMT Outlook won't print"
p2776
g2
tp2777
a(S"REQ #6956539 - NonITMGMT Outlook won't print"
p2778
g2
tp2779
a(S'NonITMGMT Email Account'
p2780
g2
tp2781
a(S"REQ #6945369 - NonITMGMT can't send email"
p2782
g2
tp2783
a(S'REQ #6957177 - NonITMGMT outlook issues'
p2784
g2
tp2785
a(S'Email Login in detail'
p2786
g2
tp2787
a(S'REQ #6940018 - PC 5061'
p2788
g2
tp2789
a(S'REQ #6957175 - NonITMGMT Configure profile'
p2790
g2
tp2791
a(S'REQ #6957144 - NonITMGMT Configure profile'
p2792
g2
tp2793
a(S'REQ #6922265 - PC 5060'
p2794
g2
tp2795
a(S'REQ #6922265 - PC 5060'
p2796
g2
tp2797
a(S'REQ #6957000 - NonITMGMT cant delete web ex meetings'
p2798
g2
tp2799
a(S'REQ #6952031 - PC 5297'
p2800
g2
tp2801
a(S'REQ #6956882 - NonITMGMT outlook is freezing since it got upgraded to 2013'
p2802
g2
tp2803
a(S'REQ #6955169 - NonITMGMT user cannot open outlook'
p2804
g2
tp2805
a(S'REQ #6956651 - NonITMGMT user lost every thing from calender'
p2806
g2
tp2807
a(S'REQ #6956668 -'
p2808
g2
tp2809
a(S'REQ #6956481 - NonITMGMT Pst files in outlook is empty.'
p2810
g2
tp2811
a(S'REQ #6932484 - NonITMGMT Outlook constantly uses 25% of CPU time.'
p2812
g2
tp2813
a(S'REQ #6956470 - NonITMGMT outlook not updated'
p2814
g2
tp2815
a(S'REQ #6956148 - NonITMGMT Issue: Not able to login into outlook'
p2816
g2
tp2817
a(S'REQ #6953370 - PC 5050'
p2818
g2
tp2819
a(S'REQ #6953370 - PC 5050'
p2820
g2
tp2821
a(S'REQ #6934161 - NonITMGMT inbox not updating, pst file is not opening'
p2822
g2
tp2823
a(S'REQ #6934161 - NonITMGMT inbox not updating, pst file is not opening'
p2824
g2
tp2825
a(S'NonITMGMT Outlook issue'
p2826
g2
tp2827
a(S'REQ #6914731 - NonITMGMT Outlook Home Screen is blank---Displays no Outlook items'
p2828
g2
tp2829
a(S'REQ #6956048 - NonITMGMT No connection with exchange server'
p2830
g2
tp2831
a(S'REQ #6955974 - NonITMGMT Outlook dont start'
p2832
g2
tp2833
a(S'REQ #6955245 - PC 6693'
p2834
g2
tp2835
a(S'Unable to open Encrypted emails on Corporate IPHONE'
p2836
g2
tp2837
a(S'REQ #6955818 - NonITMGMT user unable to check the callender for 1 particular user on his o'
p2838
g2
tp2839
a(S'REQ #6955703 - NonITMGMT Outlook constanly asking for username and password.'
p2840
g2
tp2841
a(S'REQ #6955706 - NonITMGMT unable to open the set of folders'
p2842
g2
tp2843
a(S'x Forum 10.02. ukrahn2 0172-6817871 - outlook in offline modus'
p2844
g2
tp2845
a(S'x Forum 10.02. ukrahn2 0172-6817871 - outlook in offline modus'
p2846
g2
tp2847
a(S'REQ #6955574 - NonITMGMT user unable to open outlook'
p2848
g2
tp2849
a(S'REQ #6914392 -  unable to send email to external Id'
p2850
g2
tp2851
a(S'REQ #6914392 -  unable to send email to external Id'
p2852
g2
tp2853
a(S'REQ #6923075 - PC 5045'
p2854
g2
tp2855
a(S'Mobileiron issue'
p2856
g2
tp2857
a(S'REQ #6954241 - NonITMGMT outlook issue'
p2858
g2
tp2859
a(S'REQ #6953949 - NonITMGMT Outlook issue'
p2860
g2
tp2861
a(S'REQ #6953949 - NonITMGMT Outlook issue'
p2862
g2
tp2863
a(S'REQ #6954645 - NonITMGMT Outlook is not able to open'
p2864
g2
tp2865
a(S'REQ #6954645 - NonITMGMT Outlook is not able to open'
p2866
g2
tp2867
a(S'MobileIron Issue'
p2868
g2
tp2869
a(S'REQ #6936199 - NonITMGMT user unable to print anything from outlook'
p2870
g2
tp2871
a(S'REQ #6936199 - NonITMGMT user unable to print anything from outlook'
p2872
g2
tp2873
a(S'NonITMGMT Outlook Query'
p2874
g2
tp2875
a(S'REQ #6943775 - NonITMGMT User called in as his Outlook was not working'
p2876
g2
tp2877
a(S'REQ #6943775 - NonITMGMT User called in as his Outlook was not working'
p2878
g2
tp2879
a(S'REQ #6955069 - NonITMGMT User called in as his Outlook was full'
p2880
g2
tp2881
a(S'REQ #6949275 - PC 7528'
p2882
g2
tp2883
a(S'REQ #6954928 - NonITMGMT User had issue with outlook'
p2884
g2
tp2885
a(S'REQ #6954819 - NonITMGMT outlook 2013 is not opening'
p2886
g2
tp2887
a(S'REQ #6954821 - NonITMGMT Outlook issue'
p2888
g2
tp2889
a(S'REQ #6949965 - NonITMGMT Login Issue'
p2890
g2
tp2891
a(S'REQ #6949965 - NonITMGMT Login Issue'
p2892
g2
tp2893
a(S'REQ #6954366 - NonITMGMT Outlook is not updating'
p2894
g2
tp2895
a(S'REQ #6954366 - NonITMGMT Outlook is not updating'
p2896
g2
tp2897
a(S'NonITMGMT we can send messages(SMS) from outlook to mobile numbers.'
p2898
g2
tp2899
a(S'REQ #6936922 - PC 9572'
p2900
g2
tp2901
a(S'REQ #6954345 - NonITMGMT  webex one click issue in outlook'
p2902
g2
tp2903
a(S'REQ #6943492 - PC 7555'
p2904
g2
tp2905
a(S'REQ #6949295 - NonITMGMT User called in as he was unable to find the PST in Outlook'
p2906
g2
tp2907
a(S'REQ #6949295 - NonITMGMT User called in as he was unable to find the PST in Outlook'
p2908
g2
tp2909
a(S'REQ #6950024 - NonITMGMT outlook working slow'
p2910
g2
tp2911
a(S'REQ #6953944 - NonITMGMT outlook issue'
p2912
g2
tp2913
a(S'REQ #6948692 - NonITMGMT user stated that the office 2013 uninstalled'
p2914
g2
tp2915
a(S"REQ #6953632 - NonITMGMT Unable to open outlook it gives error can't open"
p2916
g2
tp2917
a(S"REQ #6953632 - NonITMGMT Unable to open outlook it gives error can't open"
p2918
g2
tp2919
a(S'NonITMGMT The end user requests to clean his inbox of Outlook.'
p2920
g2
tp2921
a(S'outlook not working'
p2922
g2
tp2923
a(S'NonITMGMT The end user requests to clean more space from his Inbox.'
p2924
g2
tp2925
a(S'REQ #6901237 - NonITMGMT User unable to Open up the ZIP File'
p2926
g2
tp2927
a(S'REQ #6901237 - NonITMGMT User unable to Open up the ZIP File'
p2928
g2
tp2929
a(S'Test Ticket'
p2930
g2
tp2931
a(S'user having issues with the outlook'
p2932
g2
tp2933
a(S'REQ #6918015 - NonITMGMT User dissconnected from Exchange server on Outlook.'
p2934
g2
tp2935
a(S'REQ #6948011 - NonITMGMT VOME-MFG.pst file corrupted, cannot open.'
p2936
g2
tp2937
a(S'NonITMGMT user wants to recall email'
p2938
g2
tp2939
a(S'I cannot open encrypted emails with attachments'
p2940
g2
tp2941
a(S'NonITMGMT Mailbox is over the size limit'
p2942
g2
tp2943
a(S'Need additional storage space'
p2944
g2
tp2945
a(S'NonITMGMT Mailbox space full'
p2946
g2
tp2947
a(S'NonITMGMT User unable to free space in Outlook.'
p2948
g2
tp2949
a(S'REQ #6953360 - NonITMGMT I cannot start Microsoft Outlook'
p2950
g2
tp2951
a(S'NonITMGMT exchange account creation'
p2952
g2
tp2953
a(S'REQ #6924227 - NonITMGMT Activation Kee'
p2954
g2
tp2955
a(S'REQ #6924227 - NonITMGMT Activation Kee'
p2956
g2
tp2957
a(S'REQ #6922937 - NonITMGMT Stops responding periodically throughout the day'
p2958
g2
tp2959
a(S'NonITMGMT indexing issue to the user'
p2960
g2
tp2961
a(S'Cannot access email and/or personal folders'
p2962
g2
tp2963
a(S'REQ #6950372 - NonITMGMT outlook not working'
p2964
g2
tp2965
a(S'NonITMGMT outlook issue'
p2966
g2
tp2967
a(S'REQ #6951105 - NonITMGMT unable to login to outlook'
p2968
g2
tp2969
a(S'REQ #6946347 - NonITMGMT Outlook Issue (Synchronizer Issue)'
p2970
g2
tp2971
a(S'REQ #6946347 - NonITMGMT Outlook Issue (Synchronizer Issue)'
p2972
g2
tp2973
a(S'REQ #6938845 - PC 5165'
p2974
g2
tp2975
a(S'REQ #6938845 - PC 5165'
p2976
g2
tp2977
a(S'REQ #6939974 - PC 5063'
p2978
g2
tp2979
a(S'REQ #6932493 - NonITMGMT Outlook Today is blank'
p2980
g2
tp2981
a(S'REQ #6938738 - PC 5297'
p2982
g2
tp2983
a(S"REQ #6934157 - NonITMGMT Can't update emails on outlook."
p2984
g2
tp2985
a(S"REQ #6934157 - NonITMGMT Can't update emails on outlook."
p2986
g2
tp2987
a(S'REQ #6934690 - PC 5275'
p2988
g2
tp2989
a(S'REQ #6952346 - NonITMGMT I cannot access Microsoft Outlook 2010'
p2990
g2
tp2991
a(S'NonITMGMT outlook pst file creation'
p2992
g2
tp2993
a(S'REQ #6945863 - PC 5221'
p2994
g2
tp2995
a(S'REQ #6943241 - PC 6119'
p2996
g2
tp2997
a(S'REQ #6950868 - PC 5192'
p2998
g2
tp2999
a(S'REQ #6950868 - PC 5192'
p3000
g2
tp3001
a(S'REQ #6952603 - NonITMGMT user need to move pst file to her Y drive'
p3002
g2
tp3003
a(S'REQ #6909970 - PC 5171'
p3004
g2
tp3005
a(S'REQ #6920556 - PC 5171'
p3006
g2
tp3007
a(S'REQ #6920556 - PC 5171'
p3008
g2
tp3009
a(S'REQ #6934846 - NonITMGMT User unable to access outlook'
p3010
g2
tp3011
a(S'REQ #6934846 - NonITMGMT User unable to access outlook'
p3012
g2
tp3013
a(S'REQ #6941961 - NonITMGMT cannot access Outlook application'
p3014
g2
tp3015
a(S'REQ #6952407 -'
p3016
g2
tp3017
a(S'REQ #6946248 - PC 4016'
p3018
g2
tp3019
a(S'REQ #6917890 - NonITMGMT Outlook not responding'
p3020
g2
tp3021
a(S'REQ #6947234 - NonITMGMT outlook does not open'
p3022
g2
tp3023
a(S'REQ #6952143 - NonITMGMT unable to open outlook'
p3024
g2
tp3025
a(S'REQ #6952045 - NonITMGMT Cannot open application'
p3026
g2
tp3027
a(S'REQ #6952024 - NonITMGMT all the emails got deleted from outlook only for today'
p3028
g2
tp3029
a(S'REQ #6937560 - NonITMGMT Outlook Today page does not display data'
p3030
g2
tp3031
a(S'REQ #6951889 - NonITMGMT outlook issue'
p3032
g2
tp3033
a(S'REQ #6930104 - PC 1608'
p3034
g2
tp3035
a(S'REQ #6938177 - NonITMGMT Search Does Not List All Relevant Email Items'
p3036
g2
tp3037
a(S'REQ #6947553 - PC 5061'
p3038
g2
tp3039
a(S'REQ #6948336 - NonITMGMT Outlook is showing offline'
p3040
g2
tp3041
a(S'REQ #6948336 - NonITMGMT Outlook is showing offline'
p3042
g2
tp3043
a(S'REQ #6939180 - NonITMGMT Outlook Issue'
p3044
g2
tp3045
a(S'REQ #6939180 - NonITMGMT Outlook Issue'
p3046
g2
tp3047
a(S'REQ #6951746 - PC 5298'
p3048
g2
tp3049
a(S'REQ #6950121 - PC 6978'
p3050
g2
tp3051
a(S'REQ #6915511 - NonITMGMT OUtlook freezez'
p3052
g2
tp3053
a(S'REQ #6951663 - NonITMGMT Outlook Issue'
p3054
g2
tp3055
a(S'REQ #6949648 - NonITMGMT unable to open outlook, getting error on it'
p3056
g2
tp3057
a(S'REQ #6949648 - NonITMGMT unable to open outlook, getting error on it'
p3058
g2
tp3059
a(S'REQ #6947802 - NonITMGMT Outlook does not open'
p3060
g2
tp3061
a(S'REQ #6951679 - NonITMGMT Unable to find the PST in outlook'
p3062
g2
tp3063
a(S'REQ #6951366 - NonITMGMT Cant cancel WebEx meetings'
p3064
g2
tp3065
a(S'REQ #6951554 - NonITMGMT map the pst files'
p3066
g2
tp3067
a(S'REQ #6951497 - NonITMGMT webex icon is hidden'
p3068
g2
tp3069
a(S'REQ #6937838 - NonITMGMT Folders are missing from outlook'
p3070
g2
tp3071
a(S'REQ #6951165 - NonITMGMT Unable to open the outlook'
p3072
g2
tp3073
a(S'REQ #6951260 - NonITMGMT unable to launch outlook'
p3074
g2
tp3075
a(S'REQ #6947743 - NonITMGMT Outlook font issue'
p3076
g2
tp3077
a(S'REQ #6947743 - NonITMGMT Outlook font issue'
p3078
g2
tp3079
a(S'i have got a problem with opening the outlook'
p3080
g2
tp3081
a(S'REQ #6947622 - NonITMGMT Microsoft Exhange Outlook.PST error'
p3082
g2
tp3083
a(S'REQ #6951072 - NonITMGMT OutLook Issue'
p3084
g2
tp3085
a(S'REQ #6938473 - NonITMGMT Unable to open outlook'
p3086
g2
tp3087
a(S'REQ #6950614 - PC 1608'
p3088
g2
tp3089
a(S'REQ #6950614 - PC 1608'
p3090
g2
tp3091
a(S'REQ #6928067 - PC 5335'
p3092
g2
tp3093
a(S'REQ #6937112 - NonITMGMT Outlook Today functionality is not available'
p3094
g2
tp3095
a(S'REQ #6937602 - NonITMGMT OUtlook is non responsive often'
p3096
g2
tp3097
a(S'NonITMGMT transfer pst from old system to new system'
p3098
g2
tp3099
a(S'NonITMGMT user stated that the webex icon is been missing in the computer.'
p3100
g2
tp3101
a(S'NonITMGMT Ost error'
p3102
g2
tp3103
a(S'REQ #6950627 - NonITMGMT outlook not working'
p3104
g2
tp3105
a(S'NonITMGMT OSt issues'
p3106
g2
tp3107
a(S'REQ #6947615 - PC 5187'
p3108
g2
tp3109
a(S'Unable to access outlook'
p3110
g2
tp3111
a(S'REQ #6938797 - NonITMGMT Unable to map data file'
p3112
g2
tp3113
a(S'REQ #6950373 - NonITMGMT outlook issue'
p3114
g2
tp3115
a(S'REQ #6950299 - NonITMGMT new user, could not launch Outlook'
p3116
g2
tp3117
a(S'NonITMGMT Issue with the mailbox'
p3118
g2
tp3119
a(S'REQ #6943495 - PC 7524'
p3120
g2
tp3121
a(S'REQ #6943495 - PC 7524'
p3122
g2
tp3123
a(S'REQ #6946741 - NonITMGMT unable to open outlook'
p3124
g2
tp3125
a(S'REQ #6946741 - NonITMGMT unable to open outlook'
p3126
g2
tp3127
a(S'REQ #6949078 - NonITMGMT Outlook not opening up'
p3128
g2
tp3129
a(S'REQ #6949078 - NonITMGMT Outlook not opening up'
p3130
g2
tp3131
a(S'REQ #6949866 - NonITMGMT unable to open the set of folders'
p3132
g2
tp3133
a(S'REQ #6949756 - NonITMGMT Outlook not opening'
p3134
g2
tp3135
a(S'REQ #6949756 - NonITMGMT Outlook not opening'
p3136
g2
tp3137
a(S'NonITMGMT Outlook not opening'
p3138
g2
tp3139
a(S'REQ #6949782 - NonITMGMT Outlook issue'
p3140
g2
tp3141
a(S'REQ #6931899 - NonITMGMT Change Display Name on Outlook'
p3142
g2
tp3143
a(S'REQ #6931899 - NonITMGMT Change Display Name on Outlook'
p3144
g2
tp3145
a(S'user said the iphone is been stolen.'
p3146
g2
tp3147
a(S'REQ #6949296 - NonITMGMT cannot open outlook'
p3148
g2
tp3149
a(S'REQ #6949123 - NonITMGMT Disabled webex add-in'
p3150
g2
tp3151
a(S'REQ #6949019 - NonITMGMT unable to login to outlook'
p3152
g2
tp3153
a(S'REQ #6936648 - NonITMGMT outlook is prompting for activation key'
p3154
g2
tp3155
a(S'REQ #6945057 - PC 9250'
p3156
g2
tp3157
a(S'REQ #6948802 - NonITMGMT Outlook issue'
p3158
g2
tp3159
a(S'REQ #6931097 - NonITMGMT Unable to open Outlook'
p3160
g2
tp3161
a(S'REQ #6948504 - NonITMGMT webex issue'
p3162
g2
tp3163
a(S'REQ #6948485 - NonITMGMT email issue'
p3164
g2
tp3165
a(S'REQ #6937304 - PC 7506'
p3166
g2
tp3167
a(S'REQ #6937304 - PC 7506'
p3168
g2
tp3169
a(S'REQ #6948566 - NonITMGMT user needs to enable to the video calling in webex.'
p3170
g2
tp3171
a(S'NonITMGMT Unable to launch outlook after upgrading msoffice2013'
p3172
g2
tp3173
a(S'NonITMGMT outlook login'
p3174
g2
tp3175
a(S"I've reached the size limit of the pst file"
p3176
g2
tp3177
a(S'NonITMGMT outlook issue'
p3178
g2
tp3179
a(S'NonITMGMT Cannot find contacts in Global Address Book'
p3180
g2
tp3181
a(S'REQ #6947167 - NonITMGMT not display information.'
p3182
g2
tp3183
a(S'REQ #6915706 - NonITMGMT Issue: Not able to open outlook'
p3184
g2
tp3185
a(S'REQ #6915706 - NonITMGMT Issue: Not able to open outlook'
p3186
g2
tp3187
a(S'REQ #6929168 - Ken *Rotunda Court* NonITMGMT Outlook Today no longer loads'
p3188
g2
tp3189
a(S'native email setup'
p3190
g2
tp3191
a(S'REQ #6935369 - PC 5297'
p3192
g2
tp3193
a(S'REQ #6947936 - NonITMGMT Unable to open outlook'
p3194
g2
tp3195
a(S'REQ #6934423 - PC 5215'
p3196
g2
tp3197
a(S'Request-Questions setting up .pst file for generic mailbox -  - Ticket Fulfillment'
p3198
g2
tp3199
a(S'NonITMGMT Outlook Profile Error'
p3200
g2
tp3201
a(S'REQ #6947851 - NonITMGMT Unable  to move the data to PST'
p3202
g2
tp3203
a(S'Please could you increase my mailbox size'
p3204
g2
tp3205
a(S'REQ #6947755 - NonITMGMT Outlook not opening'
p3206
g2
tp3207
a(S'Greg Whitmire needs re activatied into  outlook & e-mail'
p3208
g2
tp3209
a(S'Increase mailbox size'
p3210
g2
tp3211
a(S'user mailbox increase.'
p3212
g2
tp3213
a(S'REQ #6923157 - NonITMGMT 40 second delays in access mail and calendar'
p3214
g2
tp3215
a(S'REQ #6935470 - NonITMGMT unable to open outlook'
p3216
g2
tp3217
a(S'REQ #6935470 - NonITMGMT unable to open outlook'
p3218
g2
tp3219
a(S"NonITMGMT Can't open outlook emails"
p3220
g2
tp3221
a(S'REQ #6947562 - NonITMGMT Mailbox full'
p3222
g2
tp3223
a(S'REQ #6945960 - NonITMGMT Send receive error'
p3224
g2
tp3225
a(S'REQ #6945960 - NonITMGMT Send receive error'
p3226
g2
tp3227
a(S'NonITMGMT Need to  increase the mail box size'
p3228
g2
tp3229
a(S'NonITMGMT outlook issue'
p3230
g2
tp3231
a(S'REQ #6939297 - PC 5415'
p3232
g2
tp3233
a(S'REQ #6939297 - PC 5415'
p3234
g2
tp3235
a(S'REQ #6947394 -'
p3236
g2
tp3237
a(S'Inbox capacity needs to increased'
p3238
g2
tp3239
a(S'REQ #6915435 - PC 5415'
p3240
g2
tp3241
a(S'cannot receive email on corp mobile after quota increase'
p3242
g2
tp3243
a(S'REQ #6915474 - PC 5036 || James - RCB(2N143) - 8454488 - Outlook +S2 +SEMCO'
p3244
g2
tp3245
a(S'REQ #6947204 - NonITMGMT Outlook mail box issue'
p3246
g2
tp3247
a(S'REQ #6930044 - NonITMGMT email Search functionality not working'
p3248
g2
tp3249
a(S'REQ #6939836 - PC 5036'
p3250
g2
tp3251
a(S'Non-compliance issue on corporate iphone'
p3252
g2
tp3253
a(S'REQ #6946992 -'
p3254
g2
tp3255
a(S'REQ #6947068 - NonITMGMT user wants to create a pst file and also need to add printer'
p3256
g2
tp3257
a(S'personal iphone non compliance issue'
p3258
g2
tp3259
a(S'REQ #6934769 - PC 5215'
p3260
g2
tp3261
a(S'REQ #6923254 - NonITMGMT Constant issues with Outlook'
p3262
g2
tp3263
a(S'REQ #6946899 - NonITMGMT outlook archiving'
p3264
g2
tp3265
a(S'REQ #6946904 - NonITMGMT The user called reporting an error with Outlook.'
p3266
g2
tp3267
a(S'REQ #6924146 - PC 5000'
p3268
g2
tp3269
a(S'REQ #6927712 - Warley NonITMGMT USer was trying to work on ford MAC pc but it was not accepting'
p3270
g2
tp3271
a(S'REQ #6927712 - Warley NonITMGMT USer was trying to work on ford MAC pc but it was not accepting'
p3272
g2
tp3273
a(S'NonITMGMT issue with outlook'
p3274
g2
tp3275
a(S'REQ #6945748 - PC 5051'
p3276
g2
tp3277
a(S'REQ #6945748 - PC 5051'
p3278
g2
tp3279
a(S'REQ #6931854 - NonITMGMT Cannot login to outlook on home computer'
p3280
g2
tp3281
a(S'REQ #6928770 - NonITMGMT Attachments open to a directory instead.'
p3282
g2
tp3283
a(S'REQ #6896687 - NonITMGMT Outlook not working after the Office 2013'
p3284
g2
tp3285
a(S'REQ #6946333 - NonITMGMT The end user reports that cannot open the Microsoft Outlook.'
p3286
g2
tp3287
a(S'NonITMGMT Salaried Personnel Interview (6)( 9250c6); Conference Room Salaried Personn'
p3288
g2
tp3289
a(S'NonITMGMT pst mapping'
p3290
g2
tp3291
a(S'REQ #6933591 - PC 5344'
p3292
g2
tp3293
a(S'REQ #6927074 - NonITMGMT unable to able outlook'
p3294
g2
tp3295
a(S'REQ #6927074 - NonITMGMT unable to able outlook'
p3296
g2
tp3297
a(S'REQ #6946382 - NonITMGMT Outlook Issue'
p3298
g2
tp3299
a(S'REQ #6946318 - NonITMGMT outlook crashes'
p3300
g2
tp3301
a(S'REQ #6937719 - NonITMGMT Outlook today || Barbara - RCB(6n245) - 3226683/7345527159 - Outlook today'
p3302
g2
tp3303
a(S'REQ #6937719 - NonITMGMT Outlook today || Barbara - RCB(6n245) - 3226683/7345527159 - Outlook today'
p3304
g2
tp3305
a(S'REQ #6893529 - NonITMGMT Program crashes every time I use it.'
p3306
g2
tp3307
a(S'REQ #6946020 - NonITMGMT web ex icon not appearing on outlook'
p3308
g2
tp3309
a(S'REQ #6934177 - NonITMGMT outlook issue'
p3310
g2
tp3311
a(S'REQ #6934177 - NonITMGMT outlook issue'
p3312
g2
tp3313
a(S'REQ #6945976 - NonITMGMT Webex plugins missing from outlook'
p3314
g2
tp3315
a(S'REQ #6945815 - NonITMGMT Unable to open Outlook'
p3316
g2
tp3317
a(S'REQ #6945745 - NonITMGMT Outlook is not synchronizing.'
p3318
g2
tp3319
a(S'REQ #6945051 - NonITMGMT calenders'
p3320
g2
tp3321
a(S'REQ #6945593 - NonITMGMT outlook calendars not work'
p3322
g2
tp3323
a(S'REQ #6935182 - NonITMGMT Unable to Open Outlook'
p3324
g2
tp3325
a(S'NonITMGMT User wants to Install Vodafone Dongle (Ford provided)'
p3326
g2
tp3327
a(S'REQ #6945446 - NonITMGMT unable to open the outlook'
p3328
g2
tp3329
a(S'REQ #6889967 - NonITMGMT search doesnt work'
p3330
g2
tp3331
a(S'REQ #6889967 - NonITMGMT search doesnt work'
p3332
g2
tp3333
a(S'REQ #6945347 - NonITMGMT Unable to launch the outlook'
p3334
g2
tp3335
a(S"REQ #6945415 - NonITMGMT Can't open outlook."
p3336
g2
tp3337
a(S'REQ #6943800 - PC 7517'
p3338
g2
tp3339
a(S'REQ #6943800 - PC 7517'
p3340
g2
tp3341
a(S'REQ #6929830 - NonITMGMT The WebEx button no longer appears on my Outlook'
p3342
g2
tp3343
a(S'REQ #6933061 - NonITMGMT Outlook slowness'
p3344
g2
tp3345
a(S'REQ #6933061 - NonITMGMT Outlook slowness'
p3346
g2
tp3347
a(S'REQ #6944974 - NonITMGMT unable to open outlook, getting error while doing so'
p3348
g2
tp3349
a(S'NonITMGMT outlook not opening'
p3350
g2
tp3351
a(S'NonITMGMT user is not able to access of shared drive from home.'
p3352
g2
tp3353
a(S'REQ #6920609 - NonITMGMT User is facing issue with the outlook with EXcahnge account'
p3354
g2
tp3355
a(S'REQ #6919019 - PC 7562'
p3356
g2
tp3357
a(S'REQ #6936902 - NonITMGMT logon to fcws fails'
p3358
g2
tp3359
a(S'NonITMGMT the lync to be installed and asking for the admin credentials .'
p3360
g2
tp3361
a(S'REQ #6920648 - NonITMGMT user is facing issue with his outlook'
p3362
g2
tp3363
a(S'REQ #6943509 - NonITMGMT Outlook indexing is not working fine'
p3364
g2
tp3365
a(S'REQ #6943509 - NonITMGMT Outlook indexing is not working fine'
p3366
g2
tp3367
a(S'REQ #6943877 - NonITMGMT Microsoft Lync is not working'
p3368
g2
tp3369
a(S'REQ #6913487 - NonITMGMT Blank customised outlook today page!'
p3370
g2
tp3371
a(S'NonITMGMT Outlook Issue'
p3372
g2
tp3373
a(S'REQ #6943729 - NonITMGMT cannot start the ms outlook.'
p3374
g2
tp3375
a(S'REQ #6943729 - NonITMGMT cannot start the ms outlook.'
p3376
g2
tp3377
a(S'NonITMGMT webex icon is been missing in the computer.'
p3378
g2
tp3379
a(S'REQ #6926694 - NonITMGMT outlook issue'
p3380
g2
tp3381
a(S'REQ #6926694 - NonITMGMT outlook issue'
p3382
g2
tp3383
a(S'NonITMGMT Unable to schedule meeting using Generic mailbox'
p3384
g2
tp3385
a(S'NonITMGMT Outlook calendar size exceeded'
p3386
g2
tp3387
a(S'NonITMGMT user facing issue to login to outlook from home'
p3388
g2
tp3389
a(S'NonITMGMT Create a Rule'
p3390
g2
tp3391
a(S'Increasing Storage'
p3392
g2
tp3393
a(S'NonITMGMT User is not able to create additional folders on Outlook 2010.'
p3394
g2
tp3395
a(S'Outlook data file C: has reached the maximum size'
p3396
g2
tp3397
a(S'REQ #6920231 - PC 1200'
p3398
g2
tp3399
a(S'REQ #6920231 - PC 1200'
p3400
g2
tp3401
a(S'NonITMGMT unable to login'
p3402
g2
tp3403
a(S'REQ #6921832 - NonITMGMT Users can not connect to outlook'
p3404
g2
tp3405
a(S'REQ #6923484 - PC 5063'
p3406
g2
tp3407
a(S'NonITMGMT Outlook 2010'
p3408
g2
tp3409
a(S'REQ #6914607 - NonITMGMT Outlook Today not displaying any data'
p3410
g2
tp3411
a(S'REQ #6927897 - NonITMGMT Outlook Request Password'
p3412
g2
tp3413
a(S"REQ #6917226 - NonITMGMT I can't see my Calendar/Meetings or Tasks"
p3414
g2
tp3415
a(S'REQ #6929717 - PC 5027'
p3416
g2
tp3417
a(S'REQ #6934546 - NonITMGMT Outlook keeps crashing'
p3418
g2
tp3419
a(S'REQ #6929793 - PC 5036 || Christopher - RCB(3n406) - 734-3065055 - Outlook +S2'
p3420
g2
tp3421
a(S"Contacts are missing user's GAL"
p3422
g2
tp3423
a(S'REQ #6934585 - PC 5283'
p3424
g2
tp3425
a(S'REQ #6934585 - PC 5283'
p3426
g2
tp3427
a(S'REQ #6940380 - NonITMGMT webex icon missing from the outlook'
p3428
g2
tp3429
a(S'REQ #6929567 - PC 5093'
p3430
g2
tp3431
a(S'REQ #6940053 - PC 5257'
p3432
g2
tp3433
a(S'REQ #6940053 - PC 5257'
p3434
g2
tp3435
a(S'inbox fails to update, last update 02/02/16'
p3436
g2
tp3437
a(S'REQ #6904814 - 5093 - NonITMGMT Instant Search is not working'
p3438
g2
tp3439
a(S'REQ #6929193 -Ken* Rotunda Court II*  NonITMGMT Rules no longer Work'
p3440
g2
tp3441
a(S'REQ #6940187 - NonITMGMT Unable to open pst folder'
p3442
g2
tp3443
a(S'REQ #6934113 - SEMCO - PC 5040'
p3444
g2
tp3445
a(S'REQ #6934742 - PC 5215'
p3446
g2
tp3447
a(S'REQ #6911511 - PC 5215'
p3448
g2
tp3449
a(S'REQ #6911511 - PC 5215'
p3450
g2
tp3451
a(S'REQ #6934009 - NonITMGMT outlook working offline'
p3452
g2
tp3453
a(S'REQ #6934009 - NonITMGMT outlook working offline'
p3454
g2
tp3455
a(S'REQ #6918521 - PC 5187'
p3456
g2
tp3457
a(S'REQ #6916032 - PC 5059'
p3458
g2
tp3459
a(S'REQ #6909508 - PC 5275'
p3460
g2
tp3461
a(S'REQ #6939604 - NonITMGMT Broken'
p3462
g2
tp3463
a(S'Outlook not accessible'
p3464
g2
tp3465
a(S'NonITMGMT Request to have WebEx One Click Meeting plugin installed on his computer.'
p3466
g2
tp3467
a(S'REQ #6922752 - SEMCO - NonITMGMT Suddenly nothing appears in my "Outlook Today" view except the da'
p3468
g2
tp3469
a(S'REQ #6939431 - NonITMGMT Outlook is not working'
p3470
g2
tp3471
a(S'REQ #6934287 - NonITMGMT outlook not working properly'
p3472
g2
tp3473
a(S'REQ #6934287 - NonITMGMT outlook not working properly'
p3474
g2
tp3475
a(S'NonITMGMT Create pst'
p3476
g2
tp3477
a(S'REQ #6922816 - NonITMGMT The end user reports that cannot open her outlook.'
p3478
g2
tp3479
a(S'REQ #6934100 - PC 3002'
p3480
g2
tp3481
a(S'REQ #6933758 - NonITMGMT user cant able to access outlook'
p3482
g2
tp3483
a(S'REQ #6933758 - NonITMGMT user cant able to access outlook'
p3484
g2
tp3485
a(S'REQ #6931746 - NonITMGMT Will not send emails'
p3486
g2
tp3487
a(S'REQ #6938990 - NonITMGMT The user is facing an issue with Outlook.'
p3488
g2
tp3489
a(S'REQ #6920989 - PC 5050'
p3490
g2
tp3491
a(S'REQ #6938779 - NonITMGMT outlook was running slow'
p3492
g2
tp3493
a(S'Install  Version:  OS: W7'
p3494
g2
tp3495
a(S'REQ #6938766 - NonITMGMT Configure profile'
p3496
g2
tp3497
a(S"REQ #6938645 - NonITMGMT Can't open outlook"
p3498
g2
tp3499
a(S'REQ #6938610 - NonITMGMT outlook issue with the ost'
p3500
g2
tp3501
a(S'REQ #6938574 - NonITMGMT Cannot open the application'
p3502
g2
tp3503
a(S'REQ #6933563 - NonITMGMT user is not able to move any file into the pst files'
p3504
g2
tp3505
a(S'REQ #6934273 - NonITMGMT Pst files needs to be mapped'
p3506
g2
tp3507
a(S'REQ #6938313 - NonITMGMT Unable to login'
p3508
g2
tp3509
a(S'REQ #6932632 - PC 6967'
p3510
g2
tp3511
a(S'REQ #6938366 - NonITMGMT Outlook is offline.'
p3512
g2
tp3513
a(S'REQ #6938216 - NonITMGMT outlook is not opening up'
p3514
g2
tp3515
a(S'REQ #6936128 - PC 0845'
p3516
g2
tp3517
a(S'REQ #6934223 - NonITMGMT Got an error using office 2013'
p3518
g2
tp3519
a(S'REQ #6934223 - NonITMGMT Got an error using office 2013'
p3520
g2
tp3521
a(S'REQ #6927473 - NonITMGMT unable to access email'
p3522
g2
tp3523
a(S'REQ #6927473 - NonITMGMT unable to access email'
p3524
g2
tp3525
a(S'REQ #6931768 - NonITMGMT Outlook speel check dont appear'
p3526
g2
tp3527
a(S'REQ #6931827 - PC 7132'
p3528
g2
tp3529
a(S'REQ #6930748 - PC 7562'
p3530
g2
tp3531
a(S'NonITMGMT pst folder lost from the c drive'
p3532
g2
tp3533
a(S'REQ #6937646 - NonITMGMT unable to open outlook'
p3534
g2
tp3535
a(S'REQ #6937649 - NonITMGMT outlook issue'
p3536
g2
tp3537
a(S'NonITMGMT outlook error'
p3538
g2
tp3539
a(S'REQ #6937405 - NonITMGMT The user called reporting an error with Outlook.'
p3540
g2
tp3541
a(S'REQ #6937390 - NonITMGMT webex not available in outlook'
p3542
g2
tp3543
a(S'REQ #6932711 - NonITMGMT WebEx upgrade has caused it to be deleted from outlook'
p3544
g2
tp3545
a(S'REQ #6926903 - NonITMGMT Outlook Issue'
p3546
g2
tp3547
a(S'REQ #6926903 - NonITMGMT Outlook Issue'
p3548
g2
tp3549
a(S'REQ #6873354 - NonITMGMT Need access for Outlook 2010 & Lync'
p3550
g2
tp3551
a(S'REQ #6899743 - PC 7517'
p3552
g2
tp3553
a(S'REQ #6899743 - PC 7517'
p3554
g2
tp3555
a(S'NonITMGMT Issue with outlook'
p3556
g2
tp3557
a(S'NonITMGMT need to book conference room'
p3558
g2
tp3559
a(S'NonITMGMT user unable to found " app for office"'
p3560
g2
tp3561
a(S'REQ #6936793 - NonITMGMT outlook is not oepning'
p3562
g2
tp3563
a(S'REQ #6931780 - PC 7561'
p3564
g2
tp3565
a(S'NonITMGMT Outlook issue'
p3566
g2
tp3567
a(S"REQ #6931705 - NonITMGMT user can't view picture when update Office to version 2013"
p3568
g2
tp3569
a(S'REQ #6936614 - NonITMGMT Outlook issue'
p3570
g2
tp3571
a(S'REQ #6936327 - NonITMGMT Unable to open.'
p3572
g2
tp3573
a(S'REQ #6936219 - NonITMGMT User called in as he was unable to map the generic id CMMSSCTY'
p3574
g2
tp3575
a(S'REQ #6936219 - NonITMGMT User called in as he was unable to map the generic id CMMSSCTY'
p3576
g2
tp3577
a(S'REQ #6868399 - PC 7517'
p3578
g2
tp3579
a(S'REQ #6936453 - NonITMGMT Unable to open outlook , ost issue'
p3580
g2
tp3581
a(S'REQ #6915207 - PC 7517'
p3582
g2
tp3583
a(S'REQ #6925042 - NonITMGMT My exchange account must be enabled please.'
p3584
g2
tp3585
a(S'NonITMGMT Outlook font missing'
p3586
g2
tp3587
a(S'NonITMGMT The end user requests to access his outlook through web.'
p3588
g2
tp3589
a(S'REQ #6936072 - NonITMGMT outlook issue'
p3590
g2
tp3591
a(S'NonITMGMT hmccorm7'
p3592
g2
tp3593
a(S'NonITMGMT User cannot see webex in outlook'
p3594
g2
tp3595
a(S'NonITMGMT outlook email is not working'
p3596
g2
tp3597
a(S'NonITMGMT noscarso'
p3598
g2
tp3599
a(S'NonITMGMT User unavle to access outlook'
p3600
g2
tp3601
a(S'NonITMGMT Increase mailbox'
p3602
g2
tp3603
a(S'NonITMGMT webex is not there in outlook'
p3604
g2
tp3605
a(S'REQ #6924836 - NonITMGMT unable to contact mail server 0x8004011D/0x80040115'
p3606
g2
tp3607
a(S'REQ #6935856 - NonITMGMT Configure profile'
p3608
g2
tp3609
a(S'REQ #6935853 - NonITMGMT Configure profile'
p3610
g2
tp3611
a(S'NonITMGMT Information'
p3612
g2
tp3613
a(S'REQ #6935797 - NonITMGMT Configure profile'
p3614
g2
tp3615
a(S'REQ #6935788 - NonITMGMT Configure Outlook'
p3616
g2
tp3617
a(S'NonITMGMT personal folder'
p3618
g2
tp3619
a(S'NonITMGMT Unable to launch outlook'
p3620
g2
tp3621
a(S'NonITMGMT User requested assistance about sent emails with large attachments.'
p3622
g2
tp3623
a(S'REQ #6933517 - NonITMGMT Outlook issue'
p3624
g2
tp3625
a(S'REQ #6933517 - NonITMGMT Outlook issue'
p3626
g2
tp3627
a(S"REQ #6915012 - NonITMGMT Outlook Today doesn't show anything"
p3628
g2
tp3629
a(S'REQ #6920520 - NonITMGMT Cannot start microsoft outlook.'
p3630
g2
tp3631
a(S'REQ #6935001 - NonITMGMT The end user reports that cannot opwn her Outlook.'
p3632
g2
tp3633
a(S'REQ #6911476 - PC 5403'
p3634
g2
tp3635
a(S"REQ #6917449 - NonITMGMT Outlook 2013 isn't opening and is giving an error regarding .ost"
p3636
g2
tp3637
a(S'NonITMGMT The user requests to recover pst. folder'
p3638
g2
tp3639
a(S'REQ #6928418 - NonITMGMT OBMHELP mailbox unable to expand folders permissions denied'
p3640
g2
tp3641
a(S'Install Microsoft Outlook 2010 Version:  OS: W7'
p3642
g2
tp3643
a(S'REQ #6920955 - NonITMGMT User is uanble to send and recieve mails'
p3644
g2
tp3645
a(S'NonITMGMT Outlook startup issue'
p3646
g2
tp3647
a(S'NonITMGMT Outlook startup issue'
p3648
g2
tp3649
a(S'REQ #6926875 - NonITMGMT Outlook is crashing multiple times'
p3650
g2
tp3651
a(S'REQ #6934400 - NonITMGMT webex icon'
p3652
g2
tp3653
a(S'NonITMGMT Email recovering'
p3654
g2
tp3655
a(S'NonITMGMT Outlook startup issue'
p3656
g2
tp3657
a(S'REQ #6916257 - NonITMGMT User is facing issue with outlook'
p3658
g2
tp3659
a(S'REQ #6934226 - NonITMGMT outlook'
p3660
g2
tp3661
a(S'REQ #6923437 - NonITMGMT Outlook Search options to be modified'
p3662
g2
tp3663
a(S'REQ #6923437 - NonITMGMT Outlook Search options to be modified'
p3664
g2
tp3665
a(S'REQ #6929355 - NonITMGMT User have less space in outloo mails'
p3666
g2
tp3667
a(S'REQ #6929355 - NonITMGMT User have less space in outloo mails'
p3668
g2
tp3669
a(S'REQ #6929969 - PC 5208'
p3670
g2
tp3671
a(S'REQ #6934231 - NonITMGMT Sync issues'
p3672
g2
tp3673
a(S'REQ #6934231 - NonITMGMT Sync issues'
p3674
g2
tp3675
a(S'REQ #6916448 - S2 - NonITMGMT mail box full  ,unable to delete deleted items.'
p3676
g2
tp3677
a(S'REQ #6916448 - S2 - NonITMGMT mail box full  ,unable to delete deleted items.'
p3678
g2
tp3679
a(S'REQ #6903192 - NonITMGMT PC Bldg:5275 ot look creshing after s/w update. third instance in January.'
p3680
g2
tp3681
a(S'genric id'
p3682
g2
tp3683
a(S'NonITMGMT About account activation Outlook'
p3684
g2
tp3685
a(S'REQ #6929356 - PC 5051'
p3686
g2
tp3687
a(S'REQ #6929356 - PC 5051'
p3688
g2
tp3689
a(S'NonITMGMT Email Attachment blocked'
p3690
g2
tp3691
a(S'REQ #6934042 -'
p3692
g2
tp3693
a(S'REQ #6921114 - Warley NonITMGMT outlook indexing issue'
p3694
g2
tp3695
a(S'REQ #6921114 - Warley NonITMGMT outlook indexing issue'
p3696
g2
tp3697
a(S'REQ #6928121 - NonITMGMT unable to access pst files located on Y drive'
p3698
g2
tp3699
a(S'REQ #6928121 - NonITMGMT unable to access pst files located on Y drive'
p3700
g2
tp3701
a(S'REQ #6933912 - NonITMGMT Outlook Issue'
p3702
g2
tp3703
a(S'REQ #6933725 - NonITMGMT Unable to open outlook'
p3704
g2
tp3705
a(S'REQ #6929184 - NonITMGMT USER NEEDS TO CREATE PST'
p3706
g2
tp3707
a(S'REQ #6933629 - NonITMGMT outlook'
p3708
g2
tp3709
a(S'REQ #6933640 - NonITMGMT Issue: .ost issue'
p3710
g2
tp3711
a(S'REQ #6874283 - NonITMGMT Unable to find the folders in Outlook'
p3712
g2
tp3713
a(S'REQ #6874283 - NonITMGMT Unable to find the folders in Outlook'
p3714
g2
tp3715
a(S'REQ #6928926 - PC 6967'
p3716
g2
tp3717
a(S'REQ #6933174 - NonITMGMT Lost access to PST files on Y: drive'
p3718
g2
tp3719
a(S'REQ #6933174 - NonITMGMT Lost access to PST files on Y: drive'
p3720
g2
tp3721
a(S'REQ #6928326 - PC 5003'
p3722
g2
tp3723
a(S'REQ #6928326 - PC 5003'
p3724
g2
tp3725
a(S'NonITMGMT Webec icon on the menu bar missing'
p3726
g2
tp3727
a(S'REQ #6933388 - NonITMGMT The end user reports that cannot open his Outlook.'
p3728
g2
tp3729
a(S'REQ #6916946 - PC 5257'
p3730
g2
tp3731
a(S'NonITMGMT outlook upgradation'
p3732
g2
tp3733
a(S'REQ #6899736 - PC 6568'
p3734
g2
tp3735
a(S'REQ #6933188 - NonITMGMT outlook issue'
p3736
g2
tp3737
a(S'NonITMGMT Reminder issue in outlook'
p3738
g2
tp3739
a(S'REQ #6931623 - PC 7104'
p3740
g2
tp3741
a(S"REQ #6932824 - NonITMGMT Can't open outlook"
p3742
g2
tp3743
a(S'REQ #6932783 - NonITMGMT emails are not getting updated'
p3744
g2
tp3745
a(S'REQ #6932645 - NonITMGMT The user called reporting an error with Outlook.'
p3746
g2
tp3747
a(S'REQ #6932460 - NonITMGMT Outlook not opening up, no exchange connection'
p3748
g2
tp3749
a(S'REQ #6932494 - NonITMGMT user unabel to see webex icon on outlook'
p3750
g2
tp3751
a(S'REQ #6932470 - NonITMGMT user unabel to login to  outlook'
p3752
g2
tp3753
a(S'REQ #6932382 - NonITMGMT The user is facing an issue with Outlook.'
p3754
g2
tp3755
a(S'NonITMGMT Outlook search function issue'
p3756
g2
tp3757
a(S'REQ #6906605 - PC 6978'
p3758
g2
tp3759
a(S'NonITMGMT Outlook 2010 need to install'
p3760
g2
tp3761
a(S'REQ #6926585 - NonITMGMT Outlook Issue'
p3762
g2
tp3763
a(S'REQ #6926585 - NonITMGMT Outlook Issue'
p3764
g2
tp3765
a(S'REQ #6932260 - NonITMGMT The user cannot open the application'
p3766
g2
tp3767
a(S'REQ #6925841 - PC 6978'
p3768
g2
tp3769
a(S'NonITMGMT outlook profile'
p3770
g2
tp3771
a(S'NonITMGMT outlook is been closing automatically.'
p3772
g2
tp3773
a(S'REQ #6932185 - NonITMGMT Outlook freezing'
p3774
g2
tp3775
a(S'REQ #6925777 - Warley NonITMGMT Outlook is not responding'
p3776
g2
tp3777
a(S'REQ #6925777 - Warley NonITMGMT Outlook is not responding'
p3778
g2
tp3779
a(S'REQ #6930980 - NonITMGMT Outlook not opening'
p3780
g2
tp3781
a(S'REQ #6930980 - NonITMGMT Outlook not opening'
p3782
g2
tp3783
a(S'REQ #6931520 - NonITMGMT user is not able to access the outlook application.'
p3784
g2
tp3785
a(S'REQ #6931520 - NonITMGMT user is not able to access the outlook application.'
p3786
g2
tp3787
a(S'REQ #6927271 - PC 7246'
p3788
g2
tp3789
a(S'REQ #6932004 - NonITMGMT Outlook is not working'
p3790
g2
tp3791
a(S'REQ #6931968 - NonITMGMT User called in as she was facing an issue with the Outlook'
p3792
g2
tp3793
a(S'REQ #6931953 - NonITMGMT Outlook is not working'
p3794
g2
tp3795
a(S'NonITMGMT user called in as the outlook is opening only in the safe mode'
p3796
g2
tp3797
a(S'REQ #6930903 - NonITMGMT Outlook issue'
p3798
g2
tp3799
a(S'REQ #6931834 - NonITMGMT German wings e-mails get deleted automatically'
p3800
g2
tp3801
a(S'REQ #6931833 - NonITMGMT Outlook is not working'
p3802
g2
tp3803
a(S'NonITMGMT Outlook slowness'
p3804
g2
tp3805
a(S'REQ #6911304 - PC 7517'
p3806
g2
tp3807
a(S'REQ #6911304 - PC 7517'
p3808
g2
tp3809
a(S'REQ #6931763 - NonITMGMT outlook not working'
p3810
g2
tp3811
a(S'REQ #6919626 - PC 6978'
p3812
g2
tp3813
a(S'REQ #6900806 - PC 7506'
p3814
g2
tp3815
a(S'REQ #6900806 - PC 7506'
p3816
g2
tp3817
a(S'REQ #6915939 - NonITMGMT Outlook can not log on.'
p3818
g2
tp3819
a(S'Niehl S0 (jkreime1,14140) REQ #6931181 - NonITMGMT Outlook today dont work any more'
p3820
g2
tp3821
a(S'NonITMGMT Webex Icon not Appearing on outlook'
p3822
g2
tp3823
a(S'REQ #6931378 - NonITMGMT mailbox full'
p3824
g2
tp3825
a(S'REQ #6931373 - NonITMGMT Unable to access fmail.ford.com'
p3826
g2
tp3827
a(S"REQ #6924638 - NonITMGMT can't open locale archieve file"
p3828
g2
tp3829
a(S"REQ #6924846 - NonITMGMT a generic ID MAP1 can't open OUTLOOK"
p3830
g2
tp3831
a(S'REQ #6931185 - NonITMGMT Outlook Issue'
p3832
g2
tp3833
a(S'REQ #6931182 - NonITMGMT user stated that the outlook is not getting refreshed,'
p3834
g2
tp3835
a(S'NonITMGMT Outlook issue'
p3836
g2
tp3837
a(S'REQ #6931099 - NonITMGMT Outlook Not Returning Complete Results'
p3838
g2
tp3839
a(S'REQ #6930646 - NonITMGMT Issue with ms office'
p3840
g2
tp3841
a(S'REQ #6930646 - NonITMGMT Issue with ms office'
p3842
g2
tp3843
a(S'REQ #6930977 - NonITMGMT impossible to open mailbox'
p3844
g2
tp3845
a(S'Increase the mailbox size'
p3846
g2
tp3847
a(S'Problem with Approval'
p3848
g2
tp3849
a(S'Need delegate access to conference rooms at WEP / EEP'
p3850
g2
tp3851
a(S'REQ #6925002 - NonITMGMT Issue with outlook'
p3852
g2
tp3853
a(S'REQ #6925002 - NonITMGMT Issue with outlook'
p3854
g2
tp3855
a(S"REQ #6930398 - NonITMGMT can't open outlook"
p3856
g2
tp3857
a(S'REQ #6930670 - NonITMGMT user stated that the outlook will get hanged.'
p3858
g2
tp3859
a(S'REQ #6930408 - NonITMGMT unable use webex'
p3860
g2
tp3861
a(S"REQ #6930400 - NonITMGMT can't open outlook"
p3862
g2
tp3863
a(S'REQ #6925804 - NonITMGMT set up video conference'
p3864
g2
tp3865
a(S'REQ #6930464 - NonITMGMT Outlook profile not configuring'
p3866
g2
tp3867
a(S'NonITMGMT Outlook unable to launch'
p3868
g2
tp3869
a(S'NonITMGMT need to recover the deleted emails'
p3870
g2
tp3871
a(S'increase mailbox size'
p3872
g2
tp3873
a(S'REQ #6928029 - NonITMGMT outlook issue'
p3874
g2
tp3875
a(S'REQ #6928029 - NonITMGMT outlook issue'
p3876
g2
tp3877
a(S'REQ #6930195 - NonITMGMT Configure profile'
p3878
g2
tp3879
a(S'REQ #6928687 - NonITMGMT launching'
p3880
g2
tp3881
a(S'NonITMGMT User requested assistance to create a new PST.'
p3882
g2
tp3883
a(S'REQ #6914141 - NonITMGMT User is facing issue with outlook connectivity'
p3884
g2
tp3885
a(S'NonITMGMT exchange account creation'
p3886
g2
tp3887
a(S'NonITMGMT PST file error'
p3888
g2
tp3889
a(S'NonITMGMT unable to login to outlook with the cdsid password'
p3890
g2
tp3891
a(S'NonITMGMT user is not able to move any file into the pst files.'
p3892
g2
tp3893
a(S'REQ #6929958 - NonITMGMT Unable to open the outlook'
p3894
g2
tp3895
a(S'NonITMGMT outlook issue'
p3896
g2
tp3897
a(S'REQ #6929784 - NonITMGMT The end user reports that cannot open the outlook properly.'
p3898
g2
tp3899
a(S'Request-WebEx add-in for Outlook 2010 has been disabled and needs to be re-enabled.'
p3900
g2
tp3901
a(S'User mailbox is full'
p3902
g2
tp3903
a(S'REQ #6929696 - NonITMGMT webex keeps trying to install over and over'
p3904
g2
tp3905
a(S'REQ #6914048 - NonITMGMT Outlook- Password Pop-Up'
p3906
g2
tp3907
a(S'REQ #6914048 - NonITMGMT Outlook- Password Pop-Up'
p3908
g2
tp3909
a(S'REQ #6929597 - NonITMGMT The end user reports that cannot open her Outlook.'
p3910
g2
tp3911
a(S'REQ #6926492 - PC 5169'
p3912
g2
tp3913
a(S'REQ #6915871 - NonITMGMT Outlook is not able to connect to Server'
p3914
g2
tp3915
a(S'NonITMGMT error on the outlook, recreate the outlook profile'
p3916
g2
tp3917
a(S'Please increase mailbox size to 400GB'
p3918
g2
tp3919
a(S'REQ #6929246 - NonITMGMT Outlook 2010 issue'
p3920
g2
tp3921
a(S'REQ #6929260 - NonITMGMT user facing issuw with outlook'
p3922
g2
tp3923
a(S'User want to increase Mailbox size'
p3924
g2
tp3925
a(S'REQ #6929131 - NonITMGMT User is facing issue with outlook'
p3926
g2
tp3927
a(S'REQ #6929134 - NonITMGMT Outlook Issue'
p3928
g2
tp3929
a(S'REQ #6926612 - NonITMGMT Outlook - webex tool add-in lost'
p3930
g2
tp3931
a(S"Can't Login to Outlook"
p3932
g2
tp3933
a(S'REQ #6919892 - NonITMGMT We have issue with CDSID LVOLKOVA'
p3934
g2
tp3935
a(S'Profile not accessing when launching Outlook.'
p3936
g2
tp3937
a(S'REQ #6928831 - NonITMGMT Outlook issue'
p3938
g2
tp3939
a(S'NonITMGMT outlook issue'
p3940
g2
tp3941
a(S'REQ #6927767 - PC 5275'
p3942
g2
tp3943
a(S'REQ #6928541 - NonITMGMT The user is facing problem to cancel a meeting on her calendar.'
p3944
g2
tp3945
a(S'NonITMGMT was over with mailbox size'
p3946
g2
tp3947
a(S'REQ #6911727 - PC 6519'
p3948
g2
tp3949
a(S'REQ #6917519 - NonITMGMT User needs Outlook setup on her machine'
p3950
g2
tp3951
a(S'REQ #6917519 - NonITMGMT User needs Outlook setup on her machine'
p3952
g2
tp3953
a(S'REQ #6928300 - NonITMGMT OST error'
p3954
g2
tp3955
a(S'Mail Backups unable to open. Showing some encryption problem.'
p3956
g2
tp3957
a(S'REQ #6926414 - NonITMGMT User with this outlook problems;'
p3958
g2
tp3959
a(S'REQ #6907016 - NonITMGMT User is facing issue with outlook'
p3960
g2
tp3961
a(S'REQ #6910648 - PC 5297'
p3962
g2
tp3963
a(S'REQ #6907976 - NonITMGMT Search index function not working as intended'
p3964
g2
tp3965
a(S'REQ #6927638 - NonITMGMT unable to add shared email'
p3966
g2
tp3967
a(S"REQ #6904436 - NonITMGMT WebEx doesn't working within Outlook"
p3968
g2
tp3969
a(S'REQ #6927576 - NonITMGMT Cannot open the application'
p3970
g2
tp3971
a(S'REQ #6927408 - NonITMGMT unable to open outlook'
p3972
g2
tp3973
a(S'REQ #6910144 - NonITMGMT Inbox is too small'
p3974
g2
tp3975
a(S'REQ #6927477 - NonITMGMT profile was corrupted and disappeared'
p3976
g2
tp3977
a(S'REQ #6927450 - NonITMGMT unable to open outlook'
p3978
g2
tp3979
a(S'REQ #6915282 -Bill* Changed PW* NonITMGMT After starts, stops and required repeated logins'
p3980
g2
tp3981
a(S'REQ #6927324 - NonITMGMT cannot open outlook'
p3982
g2
tp3983
a(S'REQ #6927315 - NonITMGMT unable to open outlook'
p3984
g2
tp3985
a(S'REQ #6920967 - PC 5050'
p3986
g2
tp3987
a(S'REQ #6921073 - PC 5051'
p3988
g2
tp3989
a(S'REQ #6926411 - NonITMGMT unable to send/receive emails from outlook'
p3990
g2
tp3991
a(S'REQ #6926411 - NonITMGMT unable to send/receive emails from outlook'
p3992
g2
tp3993
a(S'REQ #6914911 - NonITMGMT mailbox full'
p3994
g2
tp3995
a(S'REQ #6924970 - NonITMGMT user received the new laptop, but not able to launch the outlook.'
p3996
g2
tp3997
a(S'REQ #6924970 - NonITMGMT user received the new laptop, but not able to launch the outlook.'
p3998
g2
tp3999
a(S'REQ #6926014 - NonITMGMT unable to  open outlook after upgrading to 2013'
p4000
g2
tp4001
a(S'REQ #6926014 - NonITMGMT unable to  open outlook after upgrading to 2013'
p4002
g2
tp4003
a(S'REQ #6926413 - NonITMGMT Cannot open on the application'
p4004
g2
tp4005
a(S'REQ #6926330 - NonITMGMT unable to open outlook'
p4006
g2
tp4007
a(S'REQ #6926237 - NonITMGMT Outlook is not working'
p4008
g2
tp4009
a(S'REQ #6926202 - NonITMGMT The user cannot open on the application'
p4010
g2
tp4011
a(S'REQ #6926152 - NonITMGMT Outlook issue'
p4012
g2
tp4013
a(S'REQ #6924946 - NonITMGMT Unable to launch Microsoft Outlook'
p4014
g2
tp4015
a(S'REQ #6924946 - NonITMGMT Unable to launch Microsoft Outlook'
p4016
g2
tp4017
a(S'REQ #6919023 - PC 6978'
p4018
g2
tp4019
a(S'Install Microsoft Outlook 2010 Version:  OS: W7'
p4020
g2
tp4021
a(S'REQ #6924954 - NonITMGMT issue with outlook'
p4022
g2
tp4023
a(S'REQ #6924954 - NonITMGMT issue with outlook'
p4024
g2
tp4025
a(S'REQ #6918987 - PC 7134'
p4026
g2
tp4027
a(S'NonITMGMT Outlook'
p4028
g2
tp4029
a(S'REQ #6925696 - NonITMGMT unable to open outlook'
p4030
g2
tp4031
a(S'REQ #6905879 - PC 7568'
p4032
g2
tp4033
a(S"REQ #6925255 - NonITMGMT can't booking comference room"
p4034
g2
tp4035
a(S'REQ #6925626 - NonITMGMT The colour of the mails chaged in outlook'
p4036
g2
tp4037
a(S'Outlook error'
p4038
g2
tp4039
a(S'REQ #6921667 - NonITMGMT User was not able to login through GEneric Id'
p4040
g2
tp4041
a(S'REQ #6921667 - NonITMGMT User was not able to login through GEneric Id'
p4042
g2
tp4043
a(S'REQ #6925391 - NonITMGMT Outlook dont launch, not connection to exchange server'
p4044
g2
tp4045
a(S"REQ #6925111 - NonITMGMT can't set default in outlook"
p4046
g2
tp4047
a(S'REQ #6925244 - NonITMGMT impossible to set meetings'
p4048
g2
tp4049
a(S'REQ #6925205 - NonITMGMT webex icon missing'
p4050
g2
tp4051
a(S'REQ #6912241 - NonITMGMT webex addin not working'
p4052
g2
tp4053
a(S'REQ #6912712 - PC 6769'
p4054
g2
tp4055
a(S'REQ #6924799 - NonITMGMT Issue with outlook'
p4056
g2
tp4057
a(S'NonITMGMT user had an issue with openning the outlook'
p4058
g2
tp4059
a(S'NonITMGMT outlook issue'
p4060
g2
tp4061
a(S'NonITMGMT Webex meeting scheduling'
p4062
g2
tp4063
a(S'REQ #6924292 - NonITMGMT Configure profile'
p4064
g2
tp4065
a(S'REQ #6924285 - NonITMGMT Configure profile'
p4066
g2
tp4067
a(S'NonITMGMT Unable to open outlook'
p4068
g2
tp4069
a(S'Install Microsoft Outlook 2010 Version:  OS: W7'
p4070
g2
tp4071
a(S'REQ #6924262 - NonITMGMT Configure profile'
p4072
g2
tp4073
a(S'REQ #6924259 - NonITMGMT Configure profile'
p4074
g2
tp4075
a(S'REQ #6924247 - NonITMGMT Configure profile'
p4076
g2
tp4077
a(S'NonITMGMT One click icon missing'
p4078
g2
tp4079
a(S'Problem with the corporate e-mail at iphone'
p4080
g2
tp4081
a(S'REQ #6924211 - NonITMGMT user facing issue with outlook'
p4082
g2
tp4083
a(S'NonITMGMT unable to access outlook from work.'
p4084
g2
tp4085
a(S'NonITMGMT To change owner of conference room'
p4086
g2
tp4087
a(S'NonITMGMT unable to get emails on generic account on outlook'
p4088
g2
tp4089
a(S'Additional mailbox storage required to support new role'
p4090
g2
tp4091
a(S'New role requiring greater space'
p4092
g2
tp4093
a(S'NonITMGMT outlook icon is hidden'
p4094
g2
tp4095
a(S'User would like to increase mailbox size'
p4096
g2
tp4097
a(S'REQ #6911007 - NonITMGMT error while opening outlook 2013 in tablet'
p4098
g2
tp4099
a(S'REQ #6911007 - NonITMGMT error while opening outlook 2013 in tablet'
p4100
g2
tp4101
a(S'NonITMGMT Outlook Profile creation'
p4102
g2
tp4103
a(S'NonITMGMT Outlook Keeps asking for the password'
p4104
g2
tp4105
a(S'REQ #6923606 - NonITMGMT lost webex Icon'
p4106
g2
tp4107
a(S'REQ #6919940 - PC 5344'
p4108
g2
tp4109
a(S'REQ #6853597 - 5283 - NonITMGMT Pop up of password multiple times'
p4110
g2
tp4111
a(S'csousa25 certificate missing'
p4112
g2
tp4113
a(S'REQ #6922640 - NonITMGMT recover file'
p4114
g2
tp4115
a(S'REQ #6923219 - PC 6437'
p4116
g2
tp4117
a(S'REQ #6923366 -'
p4118
g2
tp4119
a(S'NonITMGMT Outlook PST file error'
p4120
g2
tp4121
a(S'REQ #6917729 - S1 - PST recovery - PC 5036'
p4122
g2
tp4123
a(S'REQ #6917729 - S1 - PST recovery - PC 5036'
p4124
g2
tp4125
a(S'REQ #6917729 - S1 - PST recovery - PC 5036'
p4126
g2
tp4127
a(S'REQ #6888737 - PC 5344'
p4128
g2
tp4129
a(S'REQ #6914447 - NonITMGMT MS Outlook shuts down consistently'
p4130
g2
tp4131
a(S'REQ #6922746 -'
p4132
g2
tp4133
a(S'NonITMGMT outlook issue'
p4134
g2
tp4135
a(S'REQ #6903513 - NonITMGMT User reports that Outlook does not open.'
p4136
g2
tp4137
a(S'NonITMGMT user had an issue with the outlook'
p4138
g2
tp4139
a(S'NonITMGMT outlook issue'
p4140
g2
tp4141
a(S'Requesting additional mailbox space'
p4142
g2
tp4143
a(S'NonITMGMT User requested information about calendar permissions.'
p4144
g2
tp4145
a(S'REQ #6914960 - NonITMGMT Outlook gets freeze on archiving mails'
p4146
g2
tp4147
a(S'NonITMGMT Request to reactivate Outlook account.'
p4148
g2
tp4149
a(S'REQ #6923059 - NonITMGMT Outlook Issue'
p4150
g2
tp4151
a(S'REQ #6917133 - NonITMGMT Outlook Issue'
p4152
g2
tp4153
a(S'REQ #6917133 - NonITMGMT Outlook Issue'
p4154
g2
tp4155
a(S"REQ #6922868 - NonITMGMT Can't open outlook on Laptop"
p4156
g2
tp4157
a(S'REQ #6920454 - NonITMGMT outlook issue'
p4158
g2
tp4159
a(S'REQ #6920454 - NonITMGMT outlook issue'
p4160
g2
tp4161
a(S'REQ #6922489 - NonITMGMT The end user reports that his Outlook was too slow.'
p4162
g2
tp4163
a(S'REQ #6917083 - NonITMGMT outlook not working'
p4164
g2
tp4165
a(S'REQ #6922674 - NonITMGMT Issue: .ost error'
p4166
g2
tp4167
a(S'REQ #6907936 - NonITMGMT outlook issue'
p4168
g2
tp4169
a(S'REQ #6915520 - PC 5298'
p4170
g2
tp4171
a(S'REQ #6921656 - PC 6978'
p4172
g2
tp4173
a(S'REQ #6921656 - PC 6978'
p4174
g2
tp4175
a(S'REQ #6904452 - PC 5297'
p4176
g2
tp4177
a(S'REQ #6911037 - PC 5297'
p4178
g2
tp4179
a(S'REQ #6913521 - NonITMGMT E-Mail not found and changed'
p4180
g2
tp4181
a(S'REQ #6917467 - PC 6553'
p4182
g2
tp4183
a(S'REQ #6921245 - NonITMGMT Webex issue'
p4184
g2
tp4185
a(S'NonITMGMT Webex icon not appearing in Outlook'
p4186
g2
tp4187
a(S'REQ #6917114 - NonITMGMT Will not print or update email'
p4188
g2
tp4189
a(S'REQ #6920855 - NonITMGMT user unable to open outlook -set of folders cannot be open'
p4190
g2
tp4191
a(S'REQ #6921428 - NonITMGMT outlook'
p4192
g2
tp4193
a(S"REQ #6921313 - NonITMGMT Can't open outlook."
p4194
g2
tp4195
a(S'NonITMGMT User request access to the shared drive'
p4196
g2
tp4197
a(S'REQ #6921341 - NonITMGMT Signature problem'
p4198
g2
tp4199
a(S'REQ #6921248 - PC 5297'
p4200
g2
tp4201
a(S'REQ #6921248 - PC 5297'
p4202
g2
tp4203
a(S'NonITMGMT Software downgrade'
p4204
g2
tp4205
a(S'REQ #6921227 - NonITMGMT Outlook exchange error'
p4206
g2
tp4207
a(S'REQ #6921154 - NonITMGMT User is facing issue with the outlook'
p4208
g2
tp4209
a(S'REQ #6917858 - PC 0835'
p4210
g2
tp4211
a(S'REQ #6895454 - PC 7524'
p4212
g2
tp4213
a(S'REQ #6895454 - PC 7524'
p4214
g2
tp4215
a(S'REQ #6919765 - NonITMGMT Unable to open outlook'
p4216
g2
tp4217
a(S'REQ #6920461 - NonITMGMT Unable to open outlook'
p4218
g2
tp4219
a(S'Can Not Access'
p4220
g2
tp4221
a(S'NonITMGMT outlook  access for EMASIGO'
p4222
g2
tp4223
a(S'REQ #6919437 - NonITMGMT Issue with MS outlook'
p4224
g2
tp4225
a(S'REQ #6919437 - NonITMGMT Issue with MS outlook'
p4226
g2
tp4227
a(S'NonITMGMT outlook issue'
p4228
g2
tp4229
a(S'REQ #6822808 - PC 7524'
p4230
g2
tp4231
a(S'REQ #6822808 - PC 7524'
p4232
g2
tp4233
a(S'REQ #6920116 - NonITMGMT Outlook is not working'
p4234
g2
tp4235
a(S'REQ #6920055 - NonITMGMT Webex'
p4236
g2
tp4237
a(S'REQ #6919847 - NonITMGMT The user is facing an issue with Outlook.'
p4238
g2
tp4239
a(S'NonITMGMT Outlook not getting connected'
p4240
g2
tp4241
a(S'REQ #6919790 - NonITMGMT unable to open outlook'
p4242
g2
tp4243
a(S'REQ #6919747 - NonITMGMT lack of space'
p4244
g2
tp4245
a(S'REQ #6919613 - NonITMGMT Profile reconfiguration'
p4246
g2
tp4247
a(S'REQ #6919549 - NonITMGMT unable to open outlook'
p4248
g2
tp4249
a(S'REQ #6919532 - NonITMGMT set of folders cannot be opened .'
p4250
g2
tp4251
a(S'REQ #6901782 - PC 7524'
p4252
g2
tp4253
a(S'REQ #6901782 - PC 7524'
p4254
g2
tp4255
a(S'REQ #6919392 - NonITMGMT Webex issue'
p4256
g2
tp4257
a(S'REQ #6913267 - NonITMGMT delete old calendar'
p4258
g2
tp4259
a(S'REQ #6913218 - NonITMGMT video conference set up'
p4260
g2
tp4261
a(S'REQ #6913276 - NonITMGMT video conference set up'
p4262
g2
tp4263
a(S'REQ #6899697 - PC 7564'
p4264
g2
tp4265
a(S"Niehl IP (ssadai1, 21501) #6912586 - NonITMGMT outlook doesn't start"
p4266
g2
tp4267
a(S'REQ #6919084 - NonITMGMT Outlook not accepting password'
p4268
g2
tp4269
a(S'REQ #6918549 - NonITMGMT User called in as her Outlook was not working'
p4270
g2
tp4271
a(S'REQ #6918549 - NonITMGMT User called in as her Outlook was not working'
p4272
g2
tp4273
a(S'REQ #6918990 - NonITMGMT Webex productivity tool is missing'
p4274
g2
tp4275
a(S'REQ #6918109 - PC 6100'
p4276
g2
tp4277
a(S'REQ #6907325 - NonITMGMT Unable to open outlook'
p4278
g2
tp4279
a(S'REQ #6907325 - NonITMGMT Unable to open outlook'
p4280
g2
tp4281
a(S'REQ #6881810 - NonITMGMT Outlook issue'
p4282
g2
tp4283
a(S'REQ #6881810 - NonITMGMT Outlook issue'
p4284
g2
tp4285
a(S'REQ #6911859 - NonITMGMT Issue with outlook'
p4286
g2
tp4287
a(S'REQ #6911859 - NonITMGMT Issue with outlook'
p4288
g2
tp4289
a(S'REQ #6876755 - NonITMGMT unable to open outlook'
p4290
g2
tp4291
a(S'NonITMGMT user has issue in outlook'
p4292
g2
tp4293
a(S'REQ #6918348 - NonITMGMT User called in as he was facing an Outlook issue'
p4294
g2
tp4295
a(S'NonITMGMT Need to recover the deleted emails from outlook inbox'
p4296
g2
tp4297
a(S'NonITMGMT ADD PHOTO IN OUTLOOK'
p4298
g2
tp4299
a(S'NonITMGMT User unable to recover .PST files after uprading to Office 2013.'
p4300
g2
tp4301
a(S'NonITMGMT user had an issue with openning the outlook'
p4302
g2
tp4303
a(S'One of my pst folder cannot be added'
p4304
g2
tp4305
a(S'REQ #6914202 -Savina*  NonITMGMT User is facing issue with his outlook'
p4306
g2
tp4307
a(S'REQ #6917777 -'
p4308
g2
tp4309
a(S'Remove Microsoft Outlook 2010 Version:  OS: W7'
p4310
g2
tp4311
a(S'Increase mailbox size'
p4312
g2
tp4313
a(S'REQ #6915560 - PC 5050'
p4314
g2
tp4315
a(S'REQ #6915546 - NonITMGMT unable to open attachents in email'
p4316
g2
tp4317
a(S'REQ #6915546 - NonITMGMT unable to open attachents in email'
p4318
g2
tp4319
a(S'Plant Manager needs increased mailbox size'
p4320
g2
tp4321
a(S'REQ #6917185 - NonITMGMT outlook calendar'
p4322
g2
tp4323
a(S'REQ #6917185 - NonITMGMT outlook calendar'
p4324
g2
tp4325
a(S'REQ #6916888 - PC 5051'
p4326
g2
tp4327
a(S'REQ #6916888 - PC 5051'
p4328
g2
tp4329
a(S'REQ #6917509 - NonITMGMT Unable to open outlook.'
p4330
g2
tp4331
a(S'REQ #6914387 - PC 5344'
p4332
g2
tp4333
a(S'REQ #6914387 - PC 5344'
p4334
g2
tp4335
a(S'NonITMGMT User requested assistance to recover deleted itens in Outlook.'
p4336
g2
tp4337
a(S'REQ #6917359 - NonITMGMT .ost file issue'
p4338
g2
tp4339
a(S'REQ #6904533 - PC 5036 || Kristi - RCB(9s155) - 3903332 - Font issue +S1'
p4340
g2
tp4341
a(S'increase mailbox size'
p4342
g2
tp4343
a(S'REQ #6910790 - PC 5067'
p4344
g2
tp4345
a(S'NonITMGMT User requested assistance about Outlook backup.'
p4346
g2
tp4347
a(S'REQ #6873550 - NonITMGMT lost pst files'
p4348
g2
tp4349
a(S'REQ #6873550 - NonITMGMT lost pst files'
p4350
g2
tp4351
a(S'REQ #6916135 - PC 5215'
p4352
g2
tp4353
a(S'REQ #6916135 - PC 5215'
p4354
g2
tp4355
a(S'REQ #6910377 - NonITMGMT No data shown in Outlook Today window'
p4356
g2
tp4357
a(S'REQ #6917044 - NonITMGMT Outlook issue'
p4358
g2
tp4359
a(S'NonITMGMT unable to open the outlook'
p4360
g2
tp4361
a(S'NonITMGMT Outlook Profile creation'
p4362
g2
tp4363
a(S'REQ #6893560 - NonITMGMT Two emails in Outbox did not send. Needs recovery.'
p4364
g2
tp4365
a(S'REQ #6914342 - PC 6437'
p4366
g2
tp4367
a(S'NonITMGMT Outlook Profile creation'
p4368
g2
tp4369
a(S'REQ #6901678 - PC 5257'
p4370
g2
tp4371
a(S'REQ #6916793 - NonITMGMT user facing issue with webex meeting'
p4372
g2
tp4373
a(S'REQ #6908218 - NonITMGMT Request for Permission to use a Key'
p4374
g2
tp4375
a(S'REQ #6916452 - NonITMGMT outlook not working'
p4376
g2
tp4377
a(S'REQ #6916710 - NonITMGMT PST issue'
p4378
g2
tp4379
a(S'NonITMGMT unable to open sub folders in outlook'
p4380
g2
tp4381
a(S'NonITMGMT Outlook  logon'
p4382
g2
tp4383
a(S'NonITMGMT User requested assistance about Outlook backup.'
p4384
g2
tp4385
a(S'REQ #6914826 - NonITMGMT unable to send /receive through outlook'
p4386
g2
tp4387
a(S'REQ #6916515 - NonITMGMT Mailbox full'
p4388
g2
tp4389
a(S'REQ #6908250 - NonITMGMT Window keeps poping-up asking for credentials'
p4390
g2
tp4391
a(S'REQ #6916483 - NonITMGMT Headset audio not working'
p4392
g2
tp4393
a(S'REQ #6916416 - NonITMGMT Outlook account is not configured.'
p4394
g2
tp4395
a(S'REQ #6916435 - NonITMGMT The user called reporting an error with Outlook.'
p4396
g2
tp4397
a(S'REQ #6911026 - NonITMGMT Outlook issue'
p4398
g2
tp4399
a(S'REQ #6911026 - NonITMGMT Outlook issue'
p4400
g2
tp4401
a(S'REQ #6900956 - NonITMGMT Outlook cannot start'
p4402
g2
tp4403
a(S'REQ #6916300 - NonITMGMT webex not in outlook'
p4404
g2
tp4405
a(S'REQ #6913395 - Warley NonITMGMT Unable to launch outlook error failed to open outlook'
p4406
g2
tp4407
a(S'REQ #6913395 - Warley NonITMGMT Unable to launch outlook error failed to open outlook'
p4408
g2
tp4409
a(S'REQ #6910213 - NonITMGMT shows only the titles Calendar, Tasks, Messages but no data'
p4410
g2
tp4411
a(S'REQ #6916166 - NonITMGMT Unable to open outlook'
p4412
g2
tp4413
a(S'REQ #6915946 - NonITMGMT outlook crash'
p4414
g2
tp4415
a(S'REQ #6916089 - NonITMGMT Unable to login on outlook after changing the password'
p4416
g2
tp4417
a(S'REQ #6910261 - NonITMGMT Outlook to be configured'
p4418
g2
tp4419
a(S'REQ #6910261 - NonITMGMT Outlook to be configured'
p4420
g2
tp4421
a(S'NonITMGMT User got the access to the share drive unable to access'
p4422
g2
tp4423
a(S'REQ #6915896 - NonITMGMT The end user reports that cannot access her Outlook.'
p4424
g2
tp4425
a(S'REQ #6915781 - NonITMGMT Unable to open some folders under outlook'
p4426
g2
tp4427
a(S'REQ #6915869 - NonITMGMT .ost error'
p4428
g2
tp4429
a(S'NonITMGMT user stated that the windows security admin dialog box'
p4430
g2
tp4431
a(S'REQ #6910853 - PC 1601'
p4432
g2
tp4433
a(S'REQ #6910585 - NonITMGMT webex link is missing'
p4434
g2
tp4435
a(S"REQ #6915228 - NonITMGMT Can't open outlook."
p4436
g2
tp4437
a(S'REQ #6899292 - PC 2303'
p4438
g2
tp4439
a(S"REQ #6895066 - NonITMGMT Outlook doesn't open since yesterday, it just snaps, then closes"
p4440
g2
tp4441
a(S"REQ #6895066 - NonITMGMT Outlook doesn't open since yesterday, it just snaps, then closes"
p4442
g2
tp4443
a(S'REQ #6904182 - NonITMGMT outlook issue'
p4444
g2
tp4445
a(S'REQ #6904182 - NonITMGMT outlook issue'
p4446
g2
tp4447
a(S'REQ #6914407 - NonITMGMT outlook 2013 connectivity Issue'
p4448
g2
tp4449
a(S'NonITMGMT mailbox inquiry'
p4450
g2
tp4451
a(S'REQ #6885387 - NonITMGMT Error to create account in outlook'
p4452
g2
tp4453
a(S'REQ #6885387 - NonITMGMT Error to create account in outlook'
p4454
g2
tp4455
a(S'REQ #6910693 - NonITMGMT Delegates are unable to view the Inbox'
p4456
g2
tp4457
a(S'REQ #6914818 - NonITMGMT Issue: Webex icon'
p4458
g2
tp4459
a(S'REQ #6914761 - NonITMGMT Issue: Recover deleted emails'
p4460
g2
tp4461
a(S'REQ #6914636 - NonITMGMT unable to open pst file'
p4462
g2
tp4463
a(S'Install Microsoft Outlook 2010 Version:  OS: W7'
p4464
g2
tp4465
a(S'REQ #6876220 - PC 5036 || Jerry - RCB(2n205) - 3901417 - Outlook +S2'
p4466
g2
tp4467
a(S'REQ #6876220 - PC 5036 || Jerry - RCB(2n205) - 3901417 - Outlook +S2'
p4468
g2
tp4469
a(S'REQ #6910497 - NonITMGMT Alert is shown'
p4470
g2
tp4471
a(S'REQ #6914363 - NonITMGMT user said that i got notification  that my mailbox size should be'
p4472
g2
tp4473
a(S'REQ #6912618 - NonITMGMT User called in as her Outlook was not opening'
p4474
g2
tp4475
a(S'REQ #6912618 - NonITMGMT User called in as her Outlook was not opening'
p4476
g2
tp4477
a(S'REQ #6907347 - NonITMGMT no Web Ex productivity tool'
p4478
g2
tp4479
a(S'REQ #6902150 - NonITMGMT Several applications are not functioning in my laptop.'
p4480
g2
tp4481
a(S'REQ #6902150 - NonITMGMT Several applications are not functioning in my laptop.'
p4482
g2
tp4483
a(S'REQ #6899190 - NonITMGMT Unable to open the outlook'
p4484
g2
tp4485
a(S'REQ #6899190 - NonITMGMT Unable to open the outlook'
p4486
g2
tp4487
a(S'REQ #6896169 - NonITMGMT Unable to open some kind of attachment'
p4488
g2
tp4489
a(S'REQ #6896169 - NonITMGMT Unable to open some kind of attachment'
p4490
g2
tp4491
a(S'PD-S2- REQ #6900494 - NonITMGMT Outlook Crashes since last Update'
p4492
g2
tp4493
a(S'REQ #6913810 - NonITMGMT Unable to configure outlook'
p4494
g2
tp4495
a(S'REQ #6913792 - NonITMGMT Outlook is not working'
p4496
g2
tp4497
a(S'REQ #6913623 - NonITMGMT webex add in'
p4498
g2
tp4499
a(S'REQ #6912620 - NonITMGMT Unable to open Microsoft Outlook'
p4500
g2
tp4501
a(S'REQ #6900866 - PC 7517'
p4502
g2
tp4503
a(S'REQ #6900866 - PC 7517'
p4504
g2
tp4505
a(S'PST'
p4506
g2
tp4507
a(S'REQ #6913404 - NonITMGMT Unreaded mails marked as read'
p4508
g2
tp4509
a(S'REQ #6912505 - NonITMGMT user stated that the outlook is been updated.'
p4510
g2
tp4511
a(S'REQ #6912505 - NonITMGMT user stated that the outlook is been updated.'
p4512
g2
tp4513
a(S'Erroneously deleted .pst folders'
p4514
g2
tp4515
a(S'REQ #6880631 - NonITMGMT Unable to open the outlook'
p4516
g2
tp4517
a(S'REQ #6880631 - NonITMGMT Unable to open the outlook'
p4518
g2
tp4519
a(S'REQ #6913034 - NonITMGMT archive issue'
p4520
g2
tp4521
a(S'x S3 MW rsafron 31465 - impossible to access'
p4522
g2
tp4523
a(S'x S3 MW rsafron 31465 - impossible to access'
p4524
g2
tp4525
a(S'PD S1 REQ #6900255 - NonITMGMT impossible to use outlook'
p4526
g2
tp4527
a(S'PD S1 REQ #6900255 - NonITMGMT impossible to use outlook'
p4528
g2
tp4529
a(S"REQ #6912980 - NonITMGMT Can't open outlook."
p4530
g2
tp4531
a(S'REQ #6907600 - PC 7524'
p4532
g2
tp4533
a(S'REQ #6907600 - PC 7524'
p4534
g2
tp4535
a(S'REQ #6912933 - NonITMGMT Webex Prod Tools disappeared'
p4536
g2
tp4537
a(S'NonITMGMT arrange setting'
p4538
g2
tp4539
a(S'REQ #6900201 - PC 7506'
p4540
g2
tp4541
a(S'NonITMGMT set archive'
p4542
g2
tp4543
a(S'REQ #6907112 - PC 7537'
p4544
g2
tp4545
a(S'REQ #6907112 - PC 7537'
p4546
g2
tp4547
a(S'REQ #6911931 - NonITMGMT Unable to open Outlook 2013.'
p4548
g2
tp4549
a(S'REQ #6911931 - NonITMGMT Unable to open Outlook 2013.'
p4550
g2
tp4551
a(S'REQ #6906943 - PC 7517'
p4552
g2
tp4553
a(S'REQ #6906943 - PC 7517'
p4554
g2
tp4555
a(S'REQ #6912531 - NonITMGMT outlook update issue'
p4556
g2
tp4557
a(S'REQ #6901255 - PC 7562'
p4558
g2
tp4559
a(S'REQ #6901255 - PC 7562'
p4560
g2
tp4561
a(S'REQ #6900438 - PC 7562'
p4562
g2
tp4563
a(S'REQ #6912201 - NonITMGMT Outlook not opening'
p4564
g2
tp4565
a(S'REQ #6906238 - PC 7517'
p4566
g2
tp4567
a(S'REQ #6906721 - NonITMGMT cannot log in outlook'
p4568
g2
tp4569
a(S'REQ #6912214 - NonITMGMT with this cdsid user is not able to process the outlook applicati'
p4570
g2
tp4571
a(S'REQ #6912214 - NonITMGMT with this cdsid user is not able to process the outlook applicati'
p4572
g2
tp4573
a(S'REQ #6893641 - NonITMGMT user request set a rule'
p4574
g2
tp4575
a(S'REQ #7030514 - NonITMGMT unable to open any pdf'
p4576
S'Adobe'
p4577
tp4578
a(S'REQ #7028218 - NonITMGMT PDF files'
p4579
g4577
tp4580
a(S'Install Adobe Creative Suite 4 Web Premium Version:  OS: W7'
p4581
g4577
tp4582
a(S'Install Adobe Photoshop Version:  OS: W7'
p4583
g4577
tp4584
a(S'REQ #7024814 - NonITMGMT language issue'
p4585
g4577
tp4586
a(S'REQ #7024143 - NonITMGMT Unable to open PDF Files'
p4587
g4577
tp4588
a(S'Install AdobDreamweaver Version:  OS: W7'
p4589
g4577
tp4590
a(S'Install Adobe Creative Suite 3 Production Premium Version:  OS: W7'
p4591
g4577
tp4592
a(S'Remove Adobe Reader Version:  OS: W7'
p4593
g4577
tp4594
a(S'Install Adobe Acrobat 7.0 Professional Version:  OS: W7'
p4595
g4577
tp4596
a(S'NonITMGMT Request to install SVG.'
p4597
g4577
tp4598
a(S'REQ #7001099 - NonITMGMT pdf files fail to open'
p4599
g4577
tp4600
a(S'NonITMGMT Adobe reader issue'
p4601
g4577
tp4602
a(S'Install  Version:  OS: W7'
p4603
g4577
tp4604
a(S'Upgrade Adobe Reader Version:  OS: W7'
p4605
g4577
tp4606
a(S'REQ #7002970 - NonITMGMT Unbale to open PDF files'
p4607
g4577
tp4608
a(S'REQ #7002970 - NonITMGMT Unbale to open PDF files'
p4609
g4577
tp4610
a(S'REQ #7008771 -'
p4611
g4577
tp4612
a(S'REQ #7007939 - NonITMGMT Could not open any of the PDF file'
p4613
g4577
tp4614
a(S'REQ #7008081 - NonITMGMT User called in as he was unable to open any .PDF files'
p4615
g4577
tp4616
a(S'REQ #7008081 - NonITMGMT User called in as he was unable to open any .PDF files'
p4617
g4577
tp4618
a(S'Install  Version:  OS: W7'
p4619
g4577
tp4620
a(S'Install  Version:  OS: W7'
p4621
g4577
tp4622
a(S'Niehl S1  (mneufel1,18553) REQ #6992461 - NonITMGMT unable to install Adobe Acrobat 11 Pro'
p4623
g4577
tp4624
a(S'NonITMGMT Adobe issue'
p4625
g4577
tp4626
a(S'Install Adobe Acrobat 6.0 Professional Version:  OS:'
p4627
g4577
tp4628
a(S'Remove  Version:  OS: W7'
p4629
g4577
tp4630
a(S'REQ #7004046 - NonITMGMT User could not open Pdf in Adobe by default'
p4631
g4577
tp4632
a(S'NonITMGMT Unable to open pdf files'
p4633
g4577
tp4634
a(S'NonITMGMT PDF'
p4635
g4577
tp4636
a(S'Install Adobe  production premium Suite Version:  OS: W7'
p4637
g4577
tp4638
a(S'REQ #6974595 - NonITMGMT Need to reinstall'
p4639
g4577
tp4640
a(S'REQ #6957046 - NonITMGMT Cannot open .dxf file'
p4641
g4577
tp4642
a(S'Install Adobe Photoshop Version:  OS: W7'
p4643
g4577
tp4644
a(S'NonITMGMT Unable to open PDF Files'
p4645
g4577
tp4646
a(S'REQ #6987347 - NonITMGMT not able to open pdf'
p4647
g4577
tp4648
a(S'REQ #6987347 - NonITMGMT not able to open pdf'
p4649
g4577
tp4650
a(S'Install Adobe SVG Viewer Version:  OS: W7'
p4651
g4577
tp4652
a(S'Install Adobe SVG Viewer Version:  OS: W7'
p4653
g4577
tp4654
a(S'Remove Adobe Reader XI (11.0.06) MUI - SELF INSTALL Version:  OS: W7'
p4655
g4577
tp4656
a(S'REQ #6991409 - NonITMGMT PDF issue'
p4657
g4577
tp4658
a(S"REQ #6988569 - NonITMGMT Adobe Pro XI has installed 4 times and still doesn't work"
p4659
g4577
tp4660
a(S'REQ #6990043 - NonITMGMT Cannot to run the application'
p4661
g4577
tp4662
a(S'Remove Adobe Reader Version:  OS: W7'
p4663
g4577
tp4664
a(S'Install Adober Acrobat  XI Pro Version:  OS: W7'
p4665
g4577
tp4666
a(S'REQ #6987811 - NonITMGMT impossible to open files'
p4667
g4577
tp4668
a(S'REQ #6986157 - NonITMGMT Adobe is not opening'
p4669
g4577
tp4670
a(S'Remove Adobe Photoshop Version:  OS: W7'
p4671
g4577
tp4672
a(S'Install Adobe SVG Viewer 3.0 Version:  OS: W7'
p4673
g4577
tp4674
a(S'Install Adobe Creative Suite 4 Design Premium Version:  OS: W7'
p4675
g4577
tp4676
a(S'REQ #6980639 - NonITMGMT Unable to open the PDF files'
p4677
g4577
tp4678
a(S'REQ #6964476 - NonITMGMT Not able to open PDF Files'
p4679
g4577
tp4680
a(S'REQ #6980539 - NonITMGMT user is not able to open any of the pdf files in the computer'
p4681
g4577
tp4682
a(S'Install Adobe Reader Version:  OS: W7'
p4683
g4577
tp4684
a(S'Upgrade Adobe Flash Version:  OS:'
p4685
g4577
tp4686
a(S'Install Adobe Photoshop Version:  OS: W7'
p4687
g4577
tp4688
a(S'REQ #6971404 - NonITMGMT acrobat failed to connect to a dde server'
p4689
g4577
tp4690
a(S'REQ #6971404 - NonITMGMT acrobat failed to connect to a dde server'
p4691
g4577
tp4692
a(S'Install Adobe SVG Viewer Version:  OS: W7'
p4693
g4577
tp4694
a(S'REQ #6961668 - NonITMGMT cant print pdf files'
p4695
g4577
tp4696
a(S'REQ #6961668 - NonITMGMT cant print pdf files'
p4697
g4577
tp4698
a(S'NonITMGMT Unable to open Adobe reader'
p4699
g4577
tp4700
a(S'Install Adobe Acrobat 9.0 Pro Version:  OS: W7'
p4701
g4577
tp4702
a(S'REQ #6965875 - NonITMGMT Unable to print form a particular PDF file.'
p4703
g4577
tp4704
a(S'REQ #6965875 - NonITMGMT Unable to print form a particular PDF file.'
p4705
g4577
tp4706
a(S'Install Adobe Photoshop Version:  OS: Mac OS X'
p4707
g4577
tp4708
a(S'Install Adobe Design Suite Version:  OS: W7'
p4709
g4577
tp4710
a(S'NonITMGMT asked user to download from self service'
p4711
g4577
tp4712
a(S'Request-Manual install of Photoshop Premiere v9'
p4713
g4577
tp4714
a(S'REQ #6963766 - NonITMGMT user called in for Adobe Production Premium (VIDEO) Suite'
p4715
g4577
tp4716
a(S'REQ #6963766 - NonITMGMT user called in for Adobe Production Premium (VIDEO) Suite'
p4717
g4577
tp4718
a(S'Install Adobe Reader Version:  OS: W7'
p4719
g4577
tp4720
a(S'REQ #6964832 - NonITMGMT unable to open pdf'
p4721
g4577
tp4722
a(S'Install Adobe Photoshop Version:  OS: W7'
p4723
g4577
tp4724
a(S'Request-Manual install of Adobe Premier v10'
p4725
g4577
tp4726
a(S'Install Adobe SVG Viewer Version:  OS: W7'
p4727
g4577
tp4728
a(S'REQ #6958542 - NonITMGMT Unable to view Arial font content in PDF files'
p4729
g4577
tp4730
a(S'REQ #6961999 - NonITMGMT Previous 7 zip files have been changed to abode files'
p4731
g4577
tp4732
a(S'REQ #6953209 - NonITMGMT not allowing to select and open links'
p4733
g4577
tp4734
a(S'REQ #6961576 - NonITMGMT Unable to view wiring diagrams on Professional Service Tech'
p4735
g4577
tp4736
a(S'REQ #6926420 - NonITMGMT MSVCR110.DLL missing upon Photoshop installation'
p4737
g4577
tp4738
a(S'REQ #6926420 - NonITMGMT MSVCR110.DLL missing upon Photoshop installation'
p4739
g4577
tp4740
a(S'REQ #6930126 - NonITMGMT not working'
p4741
g4577
tp4742
a(S'REQ #6950427 - PC Bldg:5036 Hardware'
p4743
g4577
tp4744
a(S'REQ #6959818 - NonITMGMT apply for Adobe Software license'
p4745
g4577
tp4746
a(S'REQ #6943364 - NonITMGMT Cannot able to open PDF Files'
p4747
g4577
tp4748
a(S'REQ #6954664 - NonITMGMT issue with the pdf'
p4749
g4577
tp4750
a(S'REQ #6954664 - NonITMGMT issue with the pdf'
p4751
g4577
tp4752
a(S'Install  Version:  OS: W7'
p4753
g4577
tp4754
a(S'REQ #6911834 - NonITMGMT Unable to open encrypted PDF files. error - Save failed.'
p4755
g4577
tp4756
a(S'REQ #6911834 - NonITMGMT Unable to open encrypted PDF files. error - Save failed.'
p4757
g4577
tp4758
a(S'Install Adobe Reader Version:  OS: W7'
p4759
g4577
tp4760
a(S'Install Adobe Acrobat Professional 11 - SELF INSTALL Version:  OS: Microsoft Windows 7 Enterprise SP1 (64-bit)'
p4761
g4577
tp4762
a(S'Upgrade Adobe Illustrator Version:  OS: W7'
p4763
g4577
tp4764
a(S'Install Adobe Illustrator Version:  OS: W7'
p4765
g4577
tp4766
a(S'REQ #6943788 - NonITMGMT pdf files are not opening'
p4767
g4577
tp4768
a(S'Install  Version:  OS: W7'
p4769
g4577
tp4770
a(S'Install Adobe Acrobat 8.0 Professional Version:  OS: W7'
p4771
g4577
tp4772
a(S'Install Adobe Reader Version:  OS: WINDOWS'
p4773
g4577
tp4774
a(S'REQ #6949987 - NonITMGMT pdf file issue'
p4775
g4577
tp4776
a(S'REQ #6949307 - NonITMGMT unable to open pdf files'
p4777
g4577
tp4778
a(S'Install Adobe Acrobat 9.0 Pro Version:  OS: W7'
p4779
g4577
tp4780
a(S'Install Adobe Flash Player Version:  OS: W7'
p4781
g4577
tp4782
a(S'REQ #6937434 - NonITMGMT User is unable to open any adobe file'
p4783
g4577
tp4784
a(S'REQ #6938293 - NonITMGMT User is unable to open PDF'
p4785
g4577
tp4786
a(S'REQ #6938293 - NonITMGMT User is unable to open PDF'
p4787
g4577
tp4788
a(S'Install  Version:  OS: W7'
p4789
g4577
tp4790
a(S'Install Adobe Photoshop Version:  OS: W7'
p4791
g4577
tp4792
a(S'REQ #6930080 - NonITMGMT Dosent work'
p4793
g4577
tp4794
a(S'Install Adobe Reader Version:  OS: W7'
p4795
g4577
tp4796
a(S'REQ #6856463 - NonITMGMT Unable to open Indesign'
p4797
g4577
tp4798
a(S'REQ #6856463 - NonITMGMT Unable to open Indesign'
p4799
g4577
tp4800
a(S'Install Adobe Illustrator Version:  OS: W7'
p4801
g4577
tp4802
a(S'Install Adobe SVG Viewer Version:  OS: W7'
p4803
g4577
tp4804
a(S'Remove Adobe Content Viewer Version:  OS: W7'
p4805
g4577
tp4806
a(S'Remove Adobe Content Viewer Version:  OS: W7'
p4807
g4577
tp4808
a(S'Install Adobe writer Version:  OS: W7'
p4809
g4577
tp4810
a(S'Install Adobe Photoshop Version:  OS: W7'
p4811
g4577
tp4812
a(S'REQ #6922645 - NonITMGMT I need SVG viewer installed to I can use service manuals online.'
p4813
g4577
tp4814
a(S'Install Adobe Reader Version:  OS: W7'
p4815
g4577
tp4816
a(S'Install Adobe Acrobat 9.0 Standard Version:  OS: W7'
p4817
g4577
tp4818
a(S'REQ #6922195 - NonITMGMT when asked to print, file wants to auto save on desktop'
p4819
g4577
tp4820
a(S'Install Adobe Acrobat 9.0 Pro Version:  OS: W7'
p4821
g4577
tp4822
a(S'REQ #6931067 - NonITMGMT Adober reader issue'
p4823
g4577
tp4824
a(S"REQ #6930469 - NonITMGMT user's adobe can't work normally"
p4825
g4577
tp4826
a(S"REQ #6930469 - NonITMGMT user's adobe can't work normally"
p4827
g4577
tp4828
a(S'NonITMGMT Adobe flash Player'
p4829
g4577
tp4830
a(S'REQ #6930496 - NonITMGMT user is not able to open the pdf using the adobe reader.'
p4831
g4577
tp4832
a(S'Upgrade  Version:  OS: W7'
p4833
g4577
tp4834
a(S'Install Adobe SVG View 3.0 Version:  OS: W7'
p4835
g4577
tp4836
a(S'Install  Version:  OS: W7'
p4837
g4577
tp4838
a(S'NonITMGMT User wants to get the purchase license'
p4839
g4577
tp4840
a(S'REQ #6927111 - NonITMGMT language to be resetted'
p4841
g4577
tp4842
a(S'Install Adobe flash player Version:  OS: W7'
p4843
g4577
tp4844
a(S'REQ #6924806 - NonITMGMT user is not able to open any acrobat server. ( acrobat X1)'
p4845
g4577
tp4846
a(S'REQ #6924806 - NonITMGMT user is not able to open any acrobat server. ( acrobat X1)'
p4847
g4577
tp4848
a(S'REQ #6912861 - NonITMGMT user is not able to open any pdf documents today'
p4849
g4577
tp4850
a(S'REQ #6912861 - NonITMGMT user is not able to open any pdf documents today'
p4851
g4577
tp4852
a(S'Install Adobe Reader Version:  OS: W7'
p4853
g4577
tp4854
a(S'REQ #6922357 - NonITMGMT Unable to print the pdf files from the printer'
p4855
g4577
tp4856
a(S'REQ #6920442 - NonITMGMT unable to connect to server'
p4857
g4577
tp4858
a(S"REQ #6902595 - NonITMGMT Can't open pdf files properly"
p4859
g4577
tp4860
a(S'Remove Adobe Content Viewer Version:  OS: W7'
p4861
g4577
tp4862
a(S'Remove Adobe Content Viewer Version:  OS: W7'
p4863
g4577
tp4864
a(S'Remove Adobe Content Viewer Version:  OS: W7'
p4865
g4577
tp4866
a(S'Remove Adobe Content Viewer Version:  OS: W7'
p4867
g4577
tp4868
a(S'Remove Adobe Content Viewer Version:  OS: W7'
p4869
g4577
tp4870
a(S'Remove Adobe Content Viewer Version:  OS: W7'
p4871
g4577
tp4872
a(S'Remove Adobe Content Viewer Version:  OS: W7'
p4873
g4577
tp4874
a(S'Install Adobe Illustrator Version:  OS: W7'
p4875
g4577
tp4876
a(S'Install Adobe Illustrator,Adobe Photoshop Version:  OS: Mac OS X 11 El Captian'
p4877
g4577
tp4878
a(S'REQ #6909693 - PC Bldg:5275 Hardware'
p4879
g4577
tp4880
a(S'REQ #6909693 - PC Bldg:5275 Hardware'
p4881
g4577
tp4882
a(S'Upgrade Adobe Design Suite CC 2014 - SELF INSTALL Version:  OS: W7'
p4883
g4577
tp4884
a(S'REQ #6901027 - NonITMGMT Unable to open pdf files'
p4885
g4577
tp4886
a(S'REQ #6901027 - NonITMGMT Unable to open pdf files'
p4887
g4577
tp4888
a(S'REQ #6902081 - NonITMGMT User called in as he was unable to open any .PDF document'
p4889
g4577
tp4890
a(S'REQ #6902081 - NonITMGMT User called in as he was unable to open any .PDF document'
p4891
g4577
tp4892
a(S'REQ #6912278 - NonITMGMT Adobe is not working'
p4893
g4577
tp4894
a(S'REQ #6912772 - NonITMGMT Adobe reader issue'
p4895
g4577
tp4896
a(S'REQ #6912599 - NonITMGMT Unable to open PDF'
p4897
g4577
tp4898
a(S'Install Adobe Illustrator Version:  OS: W7'
p4899
g4577
tp4900
a(S'REQ #6912335 - NonITMGMT  PDF file issue'
p4901
g4577
tp4902
a(S'REQ #6912287 - NonITMGMT Adobe file not opening'
p4903
g4577
tp4904
a.