ccopy_reg
_reconstructor
p0
(cnltk.classify.naivebayes
NaiveBayesClassifier
p1
c__builtin__
object
p2
Ntp3
Rp4
(dp5
S'_labels'
p6
(lp7
S'Outlook'
p8
aS'Adobe'
p9
asS'_feature_probdist'
p10
(dp11
(g9
S'acrobat'
p12
tp13
g0
(cnltk.probability
ELEProbDist
p14
g2
Ntp15
Rp16
(dp17
S'_gamma'
p18
F0.5
sS'_N'
p19
I83
sS'_freqdist'
p20
cnltk.probability
FreqDist
p21
((dp22
I00
I81
sI01
I2
stp23
Rp24
sS'_bins'
p25
I2
sS'_divisor'
p26
F84.0
sbs(g8
S"n't"
p27
tp28
g0
(g14
g2
Ntp29
Rp30
(dp31
g18
F0.5
sg19
I1142
sg20
g21
((dp32
I00
I1105
sI01
I37
stp33
Rp34
sg25
I2
sg26
F1143.0
sbs(g8
S'email'
p35
tp36
g0
(g14
g2
Ntp37
Rp38
(dp39
g18
F0.5
sg19
I1142
sg20
g21
((dp40
I00
I1082
sI01
I60
stp41
Rp42
sg25
I2
sg26
F1143.0
sbs(g8
S'rcb'
p43
tp44
g0
(g14
g2
Ntp45
Rp46
(dp47
g18
F0.5
sg19
I1142
sg20
g21
((dp48
I00
I1142
stp49
Rp50
sg25
I1
sg26
F1142.5
sbs(g8
S'issues'
p51
tp52
g0
(g14
g2
Ntp53
Rp54
(dp55
g18
F0.5
sg19
I1142
sg20
g21
((dp56
I00
I1134
sI01
I8
stp57
Rp58
sg25
I2
sg26
F1143.0
sbs(g9
S'reports'
p59
tp60
g0
(g14
g2
Ntp61
Rp62
(dp63
g18
F0.5
sg19
I83
sg20
g21
((dp64
I00
I83
stp65
Rp66
sg25
I2
sg26
F84.0
sbs(g9
S'facing'
p67
tp68
g0
(g14
g2
Ntp69
Rp70
(dp71
g18
F0.5
sg19
I83
sg20
g21
((dp72
I00
I83
stp73
Rp74
sg25
I2
sg26
F84.0
sbs(g8
S'ost'
p75
tp76
g0
(g14
g2
Ntp77
Rp78
(dp79
g18
F0.5
sg19
I1142
sg20
g21
((dp80
I00
I1133
sI01
I9
stp81
Rp82
sg25
I2
sg26
F1143.0
sbs(g9
S'please'
p83
tp84
g0
(g14
g2
Ntp85
Rp86
(dp87
g18
F0.5
sg19
I83
sg20
g21
((dp88
I00
I83
stp89
Rp90
sg25
I2
sg26
F84.0
sbs(g9
S'pdf'
p91
tp92
g0
(g14
g2
Ntp93
Rp94
(dp95
g18
F0.5
sg19
I83
sg20
g21
((dp96
I00
I71
sI01
I12
stp97
Rp98
sg25
I2
sg26
F84.0
sbs(g9
S'need'
p99
tp100
g0
(g14
g2
Ntp101
Rp102
(dp103
g18
F0.5
sg19
I83
sg20
g21
((dp104
I00
I83
stp105
Rp106
sg25
I2
sg26
F84.0
sbs(g8
S'mailbox'
p107
tp108
g0
(g14
g2
Ntp109
Rp110
(dp111
g18
F0.5
sg19
I1142
sg20
g21
((dp112
I00
I1116
sI01
I26
stp113
Rp114
sg25
I2
sg26
F1143.0
sbs(g9
S'account'
p115
tp116
g0
(g14
g2
Ntp117
Rp118
(dp119
g18
F0.5
sg19
I83
sg20
g21
((dp120
I00
I83
stp121
Rp122
sg25
I2
sg26
F84.0
sbs(g8
S'ca'
p123
tp124
g0
(g14
g2
Ntp125
Rp126
(dp127
g18
F0.5
sg19
I1142
sg20
g21
((dp128
I00
I1007
sI01
I135
stp129
Rp130
sg25
I2
sg26
F1143.0
sbs(g9
S'pst'
p131
tp132
g0
(g14
g2
Ntp133
Rp134
(dp135
g18
F0.5
sg19
I83
sg20
g21
((dp136
I00
I83
stp137
Rp138
sg25
I2
sg26
F84.0
sbs(g8
S'folder'
p139
tp140
g0
(g14
g2
Ntp141
Rp142
(dp143
g18
F0.5
sg19
I1142
sg20
g21
((dp144
I00
I1126
sI01
I16
stp145
Rp146
sg25
I2
sg26
F1143.0
sbs(g9
S'called'
p147
tp148
g0
(g14
g2
Ntp149
Rp150
(dp151
g18
F0.5
sg19
I83
sg20
g21
((dp152
I00
I80
sI01
I3
stp153
Rp154
sg25
I2
sg26
F84.0
sbs(g9
S'exchange'
p155
tp156
g0
(g14
g2
Ntp157
Rp158
(dp159
g18
F0.5
sg19
I83
sg20
g21
((dp160
I00
I83
stp161
Rp162
sg25
I2
sg26
F84.0
sbs(g8
S'asking'
p163
tp164
g0
(g14
g2
Ntp165
Rp166
(dp167
g18
F0.5
sg19
I1142
sg20
g21
((dp168
I00
I1132
sI01
I10
stp169
Rp170
sg25
I2
sg26
F1143.0
sbs(g8
S'os'
p171
tp172
g0
(g14
g2
Ntp173
Rp174
(dp175
g18
F0.5
sg19
I1142
sg20
g21
((dp176
I00
I1101
sI01
I41
stp177
Rp178
sg25
I2
sg26
F1143.0
sbs(g9
S'server'
p179
tp180
g0
(g14
g2
Ntp181
Rp182
(dp183
g18
F0.5
sg19
I83
sg20
g21
((dp184
I00
I80
sI01
I3
stp185
Rp186
sg25
I2
sg26
F84.0
sbs(g9
S'end'
p187
tp188
g0
(g14
g2
Ntp189
Rp190
(dp191
g18
F0.5
sg19
I83
sg20
g21
((dp192
I00
I83
stp193
Rp194
sg25
I2
sg26
F84.0
sbs(g8
S'viewer'
p195
tp196
g0
(g14
g2
Ntp197
Rp198
(dp199
g18
F0.5
sg19
I1142
sg20
g21
((dp200
I00
I1142
stp201
Rp202
sg25
I1
sg26
F1142.5
sbs(g9
S'icon'
p203
tp204
g0
(g14
g2
Ntp205
Rp206
(dp207
g18
F0.5
sg19
I83
sg20
g21
((dp208
I00
I83
stp209
Rp210
sg25
I2
sg26
F84.0
sbs(g8
S'meeting'
p211
tp212
g0
(g14
g2
Ntp213
Rp214
(dp215
g18
F0.5
sg19
I1142
sg20
g21
((dp216
I00
I1124
sI01
I18
stp217
Rp218
sg25
I2
sg26
F1143.0
sbs(g8
S'user'
p219
tp220
g0
(g14
g2
Ntp221
Rp222
(dp223
g18
F0.5
sg19
I1142
sg20
g21
((dp224
I00
I1063
sI01
I79
stp225
Rp226
sg25
I2
sg26
F1143.0
sbs(g9
S'move'
p227
tp228
g0
(g14
g2
Ntp229
Rp230
(dp231
g18
F0.5
sg19
I83
sg20
g21
((dp232
I00
I77
sI01
I6
stp233
Rp234
sg25
I2
sg26
F84.0
sbs(g9
S'id'
p235
tp236
g0
(g14
g2
Ntp237
Rp238
(dp239
g18
F0.5
sg19
I83
sg20
g21
((dp240
I00
I83
stp241
Rp242
sg25
I2
sg26
F84.0
sbs(g9
S'create'
p243
tp244
g0
(g14
g2
Ntp245
Rp246
(dp247
g18
F0.5
sg19
I83
sg20
g21
((dp248
I00
I83
stp249
Rp250
sg25
I2
sg26
F84.0
sbs(g9
S'.pst'
p251
tp252
g0
(g14
g2
Ntp253
Rp254
(dp255
g18
F0.5
sg19
I83
sg20
g21
((dp256
I00
I83
stp257
Rp258
sg25
I2
sg26
F84.0
sbs(g9
S'issue'
p259
tp260
g0
(g14
g2
Ntp261
Rp262
(dp263
g18
F0.5
sg19
I83
sg20
g21
((dp264
I00
I78
sI01
I5
stp265
Rp266
sg25
I2
sg26
F84.0
sbs(g8
S'open'
p267
tp268
g0
(g14
g2
Ntp269
Rp270
(dp271
g18
F0.5
sg19
I1142
sg20
g21
((dp272
I00
I984
sI01
I158
stp273
Rp274
sg25
I2
sg26
F1143.0
sbs(g9
S'log'
p275
tp276
g0
(g14
g2
Ntp277
Rp278
(dp279
g18
F0.5
sg19
I83
sg20
g21
((dp280
I00
I83
stp281
Rp282
sg25
I2
sg26
F84.0
sbs(g8
S'needs'
p283
tp284
g0
(g14
g2
Ntp285
Rp286
(dp287
g18
F0.5
sg19
I1142
sg20
g21
((dp288
I00
I1131
sI01
I11
stp289
Rp290
sg25
I2
sg26
F1143.0
sbs(g9
S'calendar'
p291
tp292
g0
(g14
g2
Ntp293
Rp294
(dp295
g18
F0.5
sg19
I83
sg20
g21
((dp296
I00
I83
stp297
Rp298
sg25
I2
sg26
F84.0
sbs(g8
S'update'
p299
tp300
g0
(g14
g2
Ntp301
Rp302
(dp303
g18
F0.5
sg19
I1142
sg20
g21
((dp304
I00
I1133
sI01
I9
stp305
Rp306
sg25
I2
sg26
F1143.0
sbs(g8
S'ms'
p307
tp308
g0
(g14
g2
Ntp309
Rp310
(dp311
g18
F0.5
sg19
I1142
sg20
g21
((dp312
I00
I1131
sI01
I11
stp313
Rp314
sg25
I2
sg26
F1143.0
sbs(g8
S'room'
p315
tp316
g0
(g14
g2
Ntp317
Rp318
(dp319
g18
F0.5
sg19
I1142
sg20
g21
((dp320
I00
I1132
sI01
I10
stp321
Rp322
sg25
I2
sg26
F1143.0
sbs(g8
S'application'
p323
tp324
g0
(g14
g2
Ntp325
Rp326
(dp327
g18
F0.5
sg19
I1142
sg20
g21
((dp328
I00
I1130
sI01
I12
stp329
Rp330
sg25
I2
sg26
F1143.0
sbs(g9
S'box'
p331
tp332
g0
(g14
g2
Ntp333
Rp334
(dp335
g18
F0.5
sg19
I83
sg20
g21
((dp336
I00
I83
stp337
Rp338
sg25
I2
sg26
F84.0
sbs(g8
S'profile'
p339
tp340
g0
(g14
g2
Ntp341
Rp342
(dp343
g18
F0.5
sg19
I1142
sg20
g21
((dp344
I00
I1123
sI01
I19
stp345
Rp346
sg25
I2
sg26
F1143.0
sbs(g9
S'cant'
p347
tp348
g0
(g14
g2
Ntp349
Rp350
(dp351
g18
F0.5
sg19
I83
sg20
g21
((dp352
I00
I83
stp353
Rp354
sg25
I2
sg26
F84.0
sbs(g9
S'drive'
p355
tp356
g0
(g14
g2
Ntp357
Rp358
(dp359
g18
F0.5
sg19
I83
sg20
g21
((dp360
I00
I83
stp361
Rp362
sg25
I2
sg26
F84.0
sbs(g9
S'error'
p363
tp364
g0
(g14
g2
Ntp365
Rp366
(dp367
g18
F0.5
sg19
I83
sg20
g21
((dp368
I00
I82
sI01
I1
stp369
Rp370
sg25
I2
sg26
F84.0
sbs(g8
S'file'
p371
tp372
g0
(g14
g2
Ntp373
Rp374
(dp375
g18
F0.5
sg19
I1142
sg20
g21
((dp376
I00
I1083
sI01
I59
stp377
Rp378
sg25
I2
sg26
F1143.0
sbs(g8
S'new'
p379
tp380
g0
(g14
g2
Ntp381
Rp382
(dp383
g18
F0.5
sg19
I1142
sg20
g21
((dp384
I00
I1126
sI01
I16
stp385
Rp386
sg25
I2
sg26
F1143.0
sbs(g8
S'search'
p387
tp388
g0
(g14
g2
Ntp389
Rp390
(dp391
g18
F0.5
sg19
I1142
sg20
g21
((dp392
I00
I1136
sI01
I6
stp393
Rp394
sg25
I2
sg26
F1143.0
sbs(g9
g339
tp395
g0
(g14
g2
Ntp396
Rp397
(dp398
g18
F0.5
sg19
I83
sg20
g21
((dp399
I00
I83
stp400
Rp401
sg25
I2
sg26
F84.0
sbs(g9
S'access'
p402
tp403
g0
(g14
g2
Ntp404
Rp405
(dp406
g18
F0.5
sg19
I83
sg20
g21
((dp407
I00
I83
stp408
Rp409
sg25
I2
sg26
F84.0
sbs(g8
S'increase'
p410
tp411
g0
(g14
g2
Ntp412
Rp413
(dp414
g18
F0.5
sg19
I1142
sg20
g21
((dp415
I00
I1133
sI01
I9
stp416
Rp417
sg25
I2
sg26
F1143.0
sbs(g9
S'add'
p418
tp419
g0
(g14
g2
Ntp420
Rp421
(dp422
g18
F0.5
sg19
I83
sg20
g21
((dp423
I00
I83
stp424
Rp425
sg25
I2
sg26
F84.0
sbs(g9
S'getting'
p426
tp427
g0
(g14
g2
Ntp428
Rp429
(dp430
g18
F0.5
sg19
I83
sg20
g21
((dp431
I00
I83
stp432
Rp433
sg25
I2
sg26
F84.0
sbs(g9
g75
tp434
g0
(g14
g2
Ntp435
Rp436
(dp437
g18
F0.5
sg19
I83
sg20
g21
((dp438
I00
I83
stp439
Rp440
sg25
I2
sg26
F84.0
sbs(g9
g219
tp441
g0
(g14
g2
Ntp442
Rp443
(dp444
g18
F0.5
sg19
I83
sg20
g21
((dp445
I00
I76
sI01
I7
stp446
Rp447
sg25
I2
sg26
F84.0
sbs(g8
S'able'
p448
tp449
g0
(g14
g2
Ntp450
Rp451
(dp452
g18
F0.5
sg19
I1142
sg20
g21
((dp453
I00
I958
sI01
I184
stp454
Rp455
sg25
I2
sg26
F1143.0
sbs(g9
S'full'
p456
tp457
g0
(g14
g2
Ntp458
Rp459
(dp460
g18
F0.5
sg19
I83
sg20
g21
((dp461
I00
I83
stp462
Rp463
sg25
I2
sg26
F84.0
sbs(g8
S'outlook'
p464
tp465
g0
(g14
g2
Ntp466
Rp467
(dp468
g18
F0.5
sg19
I1142
sg20
g21
((dp469
I00
I790
sI01
I352
stp470
Rp471
sg25
I2
sg26
F1143.0
sbs(g8
S'remove'
p472
tp473
g0
(g14
g2
Ntp474
Rp475
(dp476
g18
F0.5
sg19
I1142
sg20
g21
((dp477
I00
I1139
sI01
I3
stp478
Rp479
sg25
I2
sg26
F1143.0
sbs(g8
S"'s"
p480
tp481
g0
(g14
g2
Ntp482
Rp483
(dp484
g18
F0.5
sg19
I1142
sg20
g21
((dp485
I00
I1134
sI01
I8
stp486
Rp487
sg25
I2
sg26
F1143.0
sbs(g8
S'offline'
p488
tp489
g0
(g14
g2
Ntp490
Rp491
(dp492
g18
F0.5
sg19
I1142
sg20
g21
((dp493
I00
I1134
sI01
I8
stp494
Rp495
sg25
I2
sg26
F1143.0
sbs(g9
S'microsoft'
p496
tp497
g0
(g14
g2
Ntp498
Rp499
(dp500
g18
F0.5
sg19
I83
sg20
g21
((dp501
I00
I83
stp502
Rp503
sg25
I2
sg26
F84.0
sbs(g9
g123
tp504
g0
(g14
g2
Ntp505
Rp506
(dp507
g18
F0.5
sg19
I83
sg20
g21
((dp508
I00
I78
sI01
I5
stp509
Rp510
sg25
I2
sg26
F84.0
sbs(g8
S'emails'
p511
tp512
g0
(g14
g2
Ntp513
Rp514
(dp515
g18
F0.5
sg19
I1142
sg20
g21
((dp516
I00
I1110
sI01
I32
stp517
Rp518
sg25
I2
sg26
F1143.0
sbs(g9
S'lost'
p519
tp520
g0
(g14
g2
Ntp521
Rp522
(dp523
g18
F0.5
sg19
I83
sg20
g21
((dp524
I00
I83
stp525
Rp526
sg25
I2
sg26
F84.0
sbs(g8
S'conference'
p527
tp528
g0
(g14
g2
Ntp529
Rp530
(dp531
g18
F0.5
sg19
I1142
sg20
g21
((dp532
I00
I1138
sI01
I4
stp533
Rp534
sg25
I2
sg26
F1143.0
sbs(g8
S'today'
p535
tp536
g0
(g14
g2
Ntp537
Rp538
(dp539
g18
F0.5
sg19
I1142
sg20
g21
((dp540
I00
I1137
sI01
I5
stp541
Rp542
sg25
I2
sg26
F1143.0
sbs(g8
S'work'
p543
tp544
g0
(g14
g2
Ntp545
Rp546
(dp547
g18
F0.5
sg19
I1142
sg20
g21
((dp548
I00
I1074
sI01
I68
stp549
Rp550
sg25
I2
sg26
F1143.0
sbs(g9
S'login'
p551
tp552
g0
(g14
g2
Ntp553
Rp554
(dp555
g18
F0.5
sg19
I83
sg20
g21
((dp556
I00
I83
stp557
Rp558
sg25
I2
sg26
F84.0
sbs(g8
S'set'
p559
tp560
g0
(g14
g2
Ntp561
Rp562
(dp563
g18
F0.5
sg19
I1142
sg20
g21
((dp564
I00
I1131
sI01
I11
stp565
Rp566
sg25
I2
sg26
F1143.0
sbs(g9
S'print'
p567
tp568
g0
(g14
g2
Ntp569
Rp570
(dp571
g18
F0.5
sg19
I83
sg20
g21
((dp572
I00
I81
sI01
I2
stp573
Rp574
sg25
I2
sg26
F84.0
sbs(g8
S'configure'
p575
tp576
g0
(g14
g2
Ntp577
Rp578
(dp579
g18
F0.5
sg19
I1142
sg20
g21
((dp580
I00
I1132
sI01
I10
stp581
Rp582
sg25
I2
sg26
F1143.0
sbs(g9
g527
tp583
g0
(g14
g2
Ntp584
Rp585
(dp586
g18
F0.5
sg19
I83
sg20
g21
((dp587
I00
I83
stp588
Rp589
sg25
I2
sg26
F84.0
sbs(g9
S'find'
p590
tp591
g0
(g14
g2
Ntp592
Rp593
(dp594
g18
F0.5
sg19
I83
sg20
g21
((dp595
I00
I83
stp596
Rp597
sg25
I2
sg26
F84.0
sbs(g8
g402
tp598
g0
(g14
g2
Ntp599
Rp600
(dp601
g18
F0.5
sg19
I1142
sg20
g21
((dp602
I00
I1093
sI01
I49
stp603
Rp604
sg25
I2
sg26
F1143.0
sbs(g9
g211
tp605
g0
(g14
g2
Ntp606
Rp607
(dp608
g18
F0.5
sg19
I83
sg20
g21
((dp609
I00
I83
stp610
Rp611
sg25
I2
sg26
F84.0
sbs(g8
S'got'
p612
tp613
g0
(g14
g2
Ntp614
Rp615
(dp616
g18
F0.5
sg19
I1142
sg20
g21
((dp617
I00
I1136
sI01
I6
stp618
Rp619
sg25
I2
sg26
F1143.0
sbs(g8
S'receive'
p620
tp621
g0
(g14
g2
Ntp622
Rp623
(dp624
g18
F0.5
sg19
I1142
sg20
g21
((dp625
I00
I1130
sI01
I12
stp626
Rp627
sg25
I2
sg26
F1143.0
sbs(g8
g131
tp628
g0
(g14
g2
Ntp629
Rp630
(dp631
g18
F0.5
sg19
I1142
sg20
g21
((dp632
I00
I1107
sI01
I35
stp633
Rp634
sg25
I2
sg26
F1143.0
sbs(g9
S'missing'
p635
tp636
g0
(g14
g2
Ntp637
Rp638
(dp639
g18
F0.5
sg19
I83
sg20
g21
((dp640
I00
I81
sI01
I2
stp641
Rp642
sg25
I2
sg26
F84.0
sbs(g8
g635
tp643
g0
(g14
g2
Ntp644
Rp645
(dp646
g18
F0.5
sg19
I1142
sg20
g21
((dp647
I00
I1120
sI01
I22
stp648
Rp649
sg25
I2
sg26
F1143.0
sbs(g9
S'send'
p650
tp651
g0
(g14
g2
Ntp652
Rp653
(dp654
g18
F0.5
sg19
I83
sg20
g21
((dp655
I00
I83
stp656
Rp657
sg25
I2
sg26
F84.0
sbs(g9
g299
tp658
g0
(g14
g2
Ntp659
Rp660
(dp661
g18
F0.5
sg19
I83
sg20
g21
((dp662
I00
I83
stp663
Rp664
sg25
I2
sg26
F84.0
sbs(g8
S'office'
p665
tp666
g0
(g14
g2
Ntp667
Rp668
(dp669
g18
F0.5
sg19
I1142
sg20
g21
((dp670
I00
I1137
sI01
I5
stp671
Rp672
sg25
I2
sg26
F1143.0
sbs(g9
S'mail'
p673
tp674
g0
(g14
g2
Ntp675
Rp676
(dp677
g18
F0.5
sg19
I83
sg20
g21
((dp678
I00
I83
stp679
Rp680
sg25
I2
sg26
F84.0
sbs(g9
g307
tp681
g0
(g14
g2
Ntp682
Rp683
(dp684
g18
F0.5
sg19
I83
sg20
g21
((dp685
I00
I82
sI01
I1
stp686
Rp687
sg25
I2
sg26
F84.0
sbs(g9
S'inbox'
p688
tp689
g0
(g14
g2
Ntp690
Rp691
(dp692
g18
F0.5
sg19
I83
sg20
g21
((dp693
I00
I83
stp694
Rp695
sg25
I2
sg26
F84.0
sbs(g8
S'unable'
p696
tp697
g0
(g14
g2
Ntp698
Rp699
(dp700
g18
F0.5
sg19
I1142
sg20
g21
((dp701
I00
I1049
sI01
I93
stp702
Rp703
sg25
I2
sg26
F1143.0
sbs(g9
S'webex'
p704
tp705
g0
(g14
g2
Ntp706
Rp707
(dp708
g18
F0.5
sg19
I83
sg20
g21
((dp709
I00
I83
stp710
Rp711
sg25
I2
sg26
F84.0
sbs(g8
S'adobe'
p712
tp713
g0
(g14
g2
Ntp714
Rp715
(dp716
g18
F0.5
sg19
I1142
sg20
g21
((dp717
I00
I1142
stp718
Rp719
sg25
I2
sg26
F1143.0
sbs(g9
g35
tp720
g0
(g14
g2
Ntp721
Rp722
(dp723
g18
F0.5
sg19
I83
sg20
g21
((dp724
I00
I83
stp725
Rp726
sg25
I2
sg26
F84.0
sbs(g9
S'working'
p727
tp728
g0
(g14
g2
Ntp729
Rp730
(dp731
g18
F0.5
sg19
I83
sg20
g21
((dp732
I00
I82
sI01
I1
stp733
Rp734
sg25
I2
sg26
F84.0
sbs(g8
g347
tp735
g0
(g14
g2
Ntp736
Rp737
(dp738
g18
F0.5
sg19
I1142
sg20
g21
((dp739
I00
I1134
sI01
I8
stp740
Rp741
sg25
I2
sg26
F1143.0
sbs(g8
g203
tp742
g0
(g14
g2
Ntp743
Rp744
(dp745
g18
F0.5
sg19
I1142
sg20
g21
((dp746
I00
I1121
sI01
I21
stp747
Rp748
sg25
I2
sg26
F1143.0
sbs(g9
S'pc'
p749
tp750
g0
(g14
g2
Ntp751
Rp752
(dp753
g18
F0.5
sg19
I83
sg20
g21
((dp754
I00
I83
stp755
Rp756
sg25
I2
sg26
F84.0
sbs(g8
S'mails'
p757
tp758
g0
(g14
g2
Ntp759
Rp760
(dp761
g18
F0.5
sg19
I1142
sg20
g21
((dp762
I00
I1103
sI01
I39
stp763
Rp764
sg25
I2
sg26
F1143.0
sbs(g8
g363
tp765
g0
(g14
g2
Ntp766
Rp767
(dp768
g18
F0.5
sg19
I1142
sg20
g21
((dp769
I00
I1117
sI01
I25
stp770
Rp771
sg25
I2
sg26
F1143.0
sbs(g9
S'keeps'
p772
tp773
g0
(g14
g2
Ntp774
Rp775
(dp776
g18
F0.5
sg19
I83
sg20
g21
((dp777
I00
I83
stp778
Rp779
sg25
I2
sg26
F84.0
sbs(g9
S'slow'
p780
tp781
g0
(g14
g2
Ntp782
Rp783
(dp784
g18
F0.5
sg19
I83
sg20
g21
((dp785
I00
I83
stp786
Rp787
sg25
I2
sg26
F84.0
sbs(g8
g115
tp788
g0
(g14
g2
Ntp789
Rp790
(dp791
g18
F0.5
sg19
I1142
sg20
g21
((dp792
I00
I1128
sI01
I14
stp793
Rp794
sg25
I2
sg26
F1143.0
sbs(g9
S'size'
p795
tp796
g0
(g14
g2
Ntp797
Rp798
(dp799
g18
F0.5
sg19
I83
sg20
g21
((dp800
I00
I83
stp801
Rp802
sg25
I2
sg26
F84.0
sbs(g8
g291
tp803
g0
(g14
g2
Ntp804
Rp805
(dp806
g18
F0.5
sg19
I1142
sg20
g21
((dp807
I00
I1131
sI01
I11
stp808
Rp809
sg25
I2
sg26
F1143.0
sbs(g8
S'opening'
p810
tp811
g0
(g14
g2
Ntp812
Rp813
(dp814
g18
F0.5
sg19
I1142
sg20
g21
((dp815
I00
I1125
sI01
I17
stp816
Rp817
sg25
I2
sg26
F1143.0
sbs(g8
g67
tp818
g0
(g14
g2
Ntp819
Rp820
(dp821
g18
F0.5
sg19
I1142
sg20
g21
((dp822
I00
I1122
sI01
I20
stp823
Rp824
sg25
I2
sg26
F1143.0
sbs(g9
S'space'
p825
tp826
g0
(g14
g2
Ntp827
Rp828
(dp829
g18
F0.5
sg19
I83
sg20
g21
((dp830
I00
I83
stp831
Rp832
sg25
I2
sg26
F84.0
sbs(g9
g171
tp833
g0
(g14
g2
Ntp834
Rp835
(dp836
g18
F0.5
sg19
I83
sg20
g21
((dp837
I00
I76
sI01
I7
stp838
Rp839
sg25
I2
sg26
F84.0
sbs(g8
g418
tp840
g0
(g14
g2
Ntp841
Rp842
(dp843
g18
F0.5
sg19
I1142
sg20
g21
((dp844
I00
I1125
sI01
I17
stp845
Rp846
sg25
I2
sg26
F1143.0
sbs(g9
g315
tp847
g0
(g14
g2
Ntp848
Rp849
(dp850
g18
F0.5
sg19
I83
sg20
g21
((dp851
I00
I83
stp852
Rp853
sg25
I2
sg26
F84.0
sbs(g8
S'generic'
p854
tp855
g0
(g14
g2
Ntp856
Rp857
(dp858
g18
F0.5
sg19
I1142
sg20
g21
((dp859
I00
I1132
sI01
I10
stp860
Rp861
sg25
I2
sg26
F1143.0
sbs(g9
g107
tp862
g0
(g14
g2
Ntp863
Rp864
(dp865
g18
F0.5
sg19
I83
sg20
g21
((dp866
I00
I83
stp867
Rp868
sg25
I2
sg26
F84.0
sbs(g9
g27
tp869
g0
(g14
g2
Ntp870
Rp871
(dp872
g18
F0.5
sg19
I83
sg20
g21
((dp873
I00
I80
sI01
I3
stp874
Rp875
sg25
I2
sg26
F84.0
sbs(g8
S'folders'
p876
tp877
g0
(g14
g2
Ntp878
Rp879
(dp880
g18
F0.5
sg19
I1142
sg20
g21
((dp881
I00
I1134
sI01
I8
stp882
Rp883
sg25
I2
sg26
F1143.0
sbs(g9
g448
tp884
g0
(g14
g2
Ntp885
Rp886
(dp887
g18
F0.5
sg19
I83
sg20
g21
((dp888
I00
I59
sI01
I24
stp889
Rp890
sg25
I2
sg26
F84.0
sbs(g8
g567
tp891
g0
(g14
g2
Ntp892
Rp893
(dp894
g18
F0.5
sg19
I1142
sg20
g21
((dp895
I00
I1139
sI01
I3
stp896
Rp897
sg25
I2
sg26
F1143.0
sbs(g8
S'stopping'
p898
tp899
g0
(g14
g2
Ntp900
Rp901
(dp902
g18
F0.5
sg19
I1142
sg20
g21
((dp903
I00
I1134
sI01
I8
stp904
Rp905
sg25
I2
sg26
F1143.0
sbs(g8
g59
tp906
g0
(g14
g2
Ntp907
Rp908
(dp909
g18
F0.5
sg19
I1142
sg20
g21
((dp910
I00
I1125
sI01
I17
stp911
Rp912
sg25
I2
sg26
F1143.0
sbs(g8
g251
tp913
g0
(g14
g2
Ntp914
Rp915
(dp916
g18
F0.5
sg19
I1142
sg20
g21
((dp917
I00
I1136
sI01
I6
stp918
Rp919
sg25
I2
sg26
F1143.0
sbs(g8
g12
tp920
g0
(g14
g2
Ntp921
Rp922
(dp923
g18
F0.5
sg19
I1142
sg20
g21
((dp924
I00
I1142
stp925
Rp926
sg25
I2
sg26
F1143.0
sbs(g9
g267
tp927
g0
(g14
g2
Ntp928
Rp929
(dp930
g18
F0.5
sg19
I83
sg20
g21
((dp931
I00
I56
sI01
I27
stp932
Rp933
sg25
I2
sg26
F84.0
sbs(g8
S'deleted'
p934
tp935
g0
(g14
g2
Ntp936
Rp937
(dp938
g18
F0.5
sg19
I1142
sg20
g21
((dp939
I00
I1126
sI01
I16
stp940
Rp941
sg25
I2
sg26
F1143.0
sbs(g8
g496
tp942
g0
(g14
g2
Ntp943
Rp944
(dp945
g18
F0.5
sg19
I1142
sg20
g21
((dp946
I00
I1140
sI01
I2
stp947
Rp948
sg25
I2
sg26
F1143.0
sbs(g9
S'password'
p949
tp950
g0
(g14
g2
Ntp951
Rp952
(dp953
g18
F0.5
sg19
I83
sg20
g21
((dp954
I00
I83
stp955
Rp956
sg25
I2
sg26
F84.0
sbs(g9
S'reader'
p957
tp958
g0
(g14
g2
Ntp959
Rp960
(dp961
g18
F0.5
sg19
I83
sg20
g21
((dp962
I00
I80
sI01
I3
stp963
Rp964
sg25
I2
sg26
F84.0
sbs(g9
g810
tp965
g0
(g14
g2
Ntp966
Rp967
(dp968
g18
F0.5
sg19
I83
sg20
g21
((dp969
I00
I80
sI01
I3
stp970
Rp971
sg25
I2
sg26
F84.0
sbs(g8
S'start'
p972
tp973
g0
(g14
g2
Ntp974
Rp975
(dp976
g18
F0.5
sg19
I1142
sg20
g21
((dp977
I00
I1119
sI01
I23
stp978
Rp979
sg25
I2
sg26
F1143.0
sbs(g8
g91
tp980
g0
(g14
g2
Ntp981
Rp982
(dp983
g18
F0.5
sg19
I1142
sg20
g21
((dp984
I00
I1142
stp985
Rp986
sg25
I2
sg26
F1143.0
sbs(g8
g179
tp987
g0
(g14
g2
Ntp988
Rp989
(dp990
g18
F0.5
sg19
I1142
sg20
g21
((dp991
I00
I1136
sI01
I6
stp992
Rp993
sg25
I2
sg26
F1143.0
sbs(g8
g99
tp994
g0
(g14
g2
Ntp995
Rp996
(dp997
g18
F0.5
sg19
I1142
sg20
g21
((dp998
I00
I1127
sI01
I15
stp999
Rp1000
sg25
I2
sg26
F1143.0
sbs(g8
g426
tp1001
g0
(g14
g2
Ntp1002
Rp1003
(dp1004
g18
F0.5
sg19
I1142
sg20
g21
((dp1005
I00
I1133
sI01
I9
stp1006
Rp1007
sg25
I2
sg26
F1143.0
sbs(g9
S'files'
p1008
tp1009
g0
(g14
g2
Ntp1010
Rp1011
(dp1012
g18
F0.5
sg19
I83
sg20
g21
((dp1013
I00
I67
sI01
I16
stp1014
Rp1015
sg25
I2
sg26
F84.0
sbs(g8
g147
tp1016
g0
(g14
g2
Ntp1017
Rp1018
(dp1019
g18
F0.5
sg19
I1142
sg20
g21
((dp1020
I00
I1117
sI01
I25
stp1021
Rp1022
sg25
I2
sg26
F1143.0
sbs(g9
g620
tp1023
g0
(g14
g2
Ntp1024
Rp1025
(dp1026
g18
F0.5
sg19
I83
sg20
g21
((dp1027
I00
I83
stp1028
Rp1029
sg25
I2
sg26
F84.0
sbs(g9
g480
tp1030
g0
(g14
g2
Ntp1031
Rp1032
(dp1033
g18
F0.5
sg19
I83
sg20
g21
((dp1034
I00
I81
sI01
I2
stp1035
Rp1036
sg25
I2
sg26
F84.0
sbs(g8
g227
tp1037
g0
(g14
g2
Ntp1038
Rp1039
(dp1040
g18
F0.5
sg19
I1142
sg20
g21
((dp1041
I00
I1128
sI01
I14
stp1042
Rp1043
sg25
I2
sg26
F1143.0
sbs(g8
g243
tp1044
g0
(g14
g2
Ntp1045
Rp1046
(dp1047
g18
F0.5
sg19
I1142
sg20
g21
((dp1048
I00
I1130
sI01
I12
stp1049
Rp1050
sg25
I2
sg26
F1143.0
sbs(g9
g379
tp1051
g0
(g14
g2
Ntp1052
Rp1053
(dp1054
g18
F0.5
sg19
I83
sg20
g21
((dp1055
I00
I83
stp1056
Rp1057
sg25
I2
sg26
F84.0
sbs(g8
S'request'
p1058
tp1059
g0
(g14
g2
Ntp1060
Rp1061
(dp1062
g18
F0.5
sg19
I1142
sg20
g21
((dp1063
I00
I1128
sI01
I14
stp1064
Rp1065
sg25
I2
sg26
F1143.0
sbs(g9
g51
tp1066
g0
(g14
g2
Ntp1067
Rp1068
(dp1069
g18
F0.5
sg19
I83
sg20
g21
((dp1070
I00
I83
stp1071
Rp1072
sg25
I2
sg26
F84.0
sbs(g8
g551
tp1073
g0
(g14
g2
Ntp1074
Rp1075
(dp1076
g18
F0.5
sg19
I1142
sg20
g21
((dp1077
I00
I1123
sI01
I19
stp1078
Rp1079
sg25
I2
sg26
F1143.0
sbs(g8
g235
tp1080
g0
(g14
g2
Ntp1081
Rp1082
(dp1083
g18
F0.5
sg19
I1142
sg20
g21
((dp1084
I00
I1129
sI01
I13
stp1085
Rp1086
sg25
I2
sg26
F1143.0
sbs(g8
g259
tp1087
g0
(g14
g2
Ntp1088
Rp1089
(dp1090
g18
F0.5
sg19
I1142
sg20
g21
((dp1091
I00
I991
sI01
I151
stp1092
Rp1093
sg25
I2
sg26
F1143.0
sbs(g8
g1008
tp1094
g0
(g14
g2
Ntp1095
Rp1096
(dp1097
g18
F0.5
sg19
I1142
sg20
g21
((dp1098
I00
I1127
sI01
I15
stp1099
Rp1100
sg25
I2
sg26
F1143.0
sbs(g9
g575
tp1101
g0
(g14
g2
Ntp1102
Rp1103
(dp1104
g18
F0.5
sg19
I83
sg20
g21
((dp1105
I00
I83
stp1106
Rp1107
sg25
I2
sg26
F84.0
sbs(g9
S'see'
p1108
tp1109
g0
(g14
g2
Ntp1110
Rp1111
(dp1112
g18
F0.5
sg19
I83
sg20
g21
((dp1113
I00
I83
stp1114
Rp1115
sg25
I2
sg26
F84.0
sbs(g8
g1108
tp1116
g0
(g14
g2
Ntp1117
Rp1118
(dp1119
g18
F0.5
sg19
I1142
sg20
g21
((dp1120
I00
I1140
sI01
I2
stp1121
Rp1122
sg25
I2
sg26
F1143.0
sbs(g9
g323
tp1123
g0
(g14
g2
Ntp1124
Rp1125
(dp1126
g18
F0.5
sg19
I83
sg20
g21
((dp1127
I00
I83
stp1128
Rp1129
sg25
I2
sg26
F84.0
sbs(g8
g155
tp1130
g0
(g14
g2
Ntp1131
Rp1132
(dp1133
g18
F0.5
sg19
I1142
sg20
g21
((dp1134
I00
I1137
sI01
I5
stp1135
Rp1136
sg25
I2
sg26
F1143.0
sbs(g8
g772
tp1137
g0
(g14
g2
Ntp1138
Rp1139
(dp1140
g18
F0.5
sg19
I1142
sg20
g21
((dp1141
I00
I1131
sI01
I11
stp1142
Rp1143
sg25
I2
sg26
F1143.0
sbs(g9
g139
tp1144
g0
(g14
g2
Ntp1145
Rp1146
(dp1147
g18
F0.5
sg19
I83
sg20
g21
((dp1148
I00
I83
stp1149
Rp1150
sg25
I2
sg26
F84.0
sbs(g8
g456
tp1151
g0
(g14
g2
Ntp1152
Rp1153
(dp1154
g18
F0.5
sg19
I1142
sg20
g21
((dp1155
I00
I1127
sI01
I15
stp1156
Rp1157
sg25
I2
sg26
F1143.0
sbs(g8
g187
tp1158
g0
(g14
g2
Ntp1159
Rp1160
(dp1161
g18
F0.5
sg19
I1142
sg20
g21
((dp1162
I00
I1095
sI01
I47
stp1163
Rp1164
sg25
I2
sg26
F1143.0
sbs(g9
g511
tp1165
g0
(g14
g2
Ntp1166
Rp1167
(dp1168
g18
F0.5
sg19
I83
sg20
g21
((dp1169
I00
I83
stp1170
Rp1171
sg25
I2
sg26
F84.0
sbs(g8
g519
tp1172
g0
(g14
g2
Ntp1173
Rp1174
(dp1175
g18
F0.5
sg19
I1142
sg20
g21
((dp1176
I00
I1137
sI01
I5
stp1177
Rp1178
sg25
I2
sg26
F1143.0
sbs(g9
g854
tp1179
g0
(g14
g2
Ntp1180
Rp1181
(dp1182
g18
F0.5
sg19
I83
sg20
g21
((dp1183
I00
I83
stp1184
Rp1185
sg25
I2
sg26
F84.0
sbs(g9
g972
tp1186
g0
(g14
g2
Ntp1187
Rp1188
(dp1189
g18
F0.5
sg19
I83
sg20
g21
((dp1190
I00
I83
stp1191
Rp1192
sg25
I2
sg26
F84.0
sbs(g9
g712
tp1193
g0
(g14
g2
Ntp1194
Rp1195
(dp1196
g18
F0.5
sg19
I83
sg20
g21
((dp1197
I00
I80
sI01
I3
stp1198
Rp1199
sg25
I2
sg26
F84.0
sbs(g9
g472
tp1200
g0
(g14
g2
Ntp1201
Rp1202
(dp1203
g18
F0.5
sg19
I83
sg20
g21
((dp1204
I00
I83
stp1205
Rp1206
sg25
I2
sg26
F84.0
sbs(g8
g83
tp1207
g0
(g14
g2
Ntp1208
Rp1209
(dp1210
g18
F0.5
sg19
I1142
sg20
g21
((dp1211
I00
I1140
sI01
I2
stp1212
Rp1213
sg25
I2
sg26
F1143.0
sbs(g8
S'version'
p1214
tp1215
g0
(g14
g2
Ntp1216
Rp1217
(dp1218
g18
F0.5
sg19
I1142
sg20
g21
((dp1219
I00
I1141
sI01
I1
stp1220
Rp1221
sg25
I2
sg26
F1143.0
sbs(g9
g387
tp1222
g0
(g14
g2
Ntp1223
Rp1224
(dp1225
g18
F0.5
sg19
I83
sg20
g21
((dp1226
I00
I83
stp1227
Rp1228
sg25
I2
sg26
F84.0
sbs(g8
g275
tp1229
g0
(g14
g2
Ntp1230
Rp1231
(dp1232
g18
F0.5
sg19
I1142
sg20
g21
((dp1233
I00
I1114
sI01
I28
stp1234
Rp1235
sg25
I2
sg26
F1143.0
sbs(g9
g757
tp1236
g0
(g14
g2
Ntp1237
Rp1238
(dp1239
g18
F0.5
sg19
I83
sg20
g21
((dp1240
I00
I83
stp1241
Rp1242
sg25
I2
sg26
F84.0
sbs(g9
g543
tp1243
g0
(g14
g2
Ntp1244
Rp1245
(dp1246
g18
F0.5
sg19
I83
sg20
g21
((dp1247
I00
I80
sI01
I3
stp1248
Rp1249
sg25
I2
sg26
F84.0
sbs(g9
g665
tp1250
g0
(g14
g2
Ntp1251
Rp1252
(dp1253
g18
F0.5
sg19
I83
sg20
g21
((dp1254
I00
I83
stp1255
Rp1256
sg25
I2
sg26
F84.0
sbs(g9
g163
tp1257
g0
(g14
g2
Ntp1258
Rp1259
(dp1260
g18
F0.5
sg19
I83
sg20
g21
((dp1261
I00
I83
stp1262
Rp1263
sg25
I2
sg26
F84.0
sbs(g9
g934
tp1264
g0
(g14
g2
Ntp1265
Rp1266
(dp1267
g18
F0.5
sg19
I83
sg20
g21
((dp1268
I00
I83
stp1269
Rp1270
sg25
I2
sg26
F84.0
sbs(g8
g795
tp1271
g0
(g14
g2
Ntp1272
Rp1273
(dp1274
g18
F0.5
sg19
I1142
sg20
g21
((dp1275
I00
I1121
sI01
I21
stp1276
Rp1277
sg25
I2
sg26
F1143.0
sbs(g8
S'warley'
p1278
tp1279
g0
(g14
g2
Ntp1280
Rp1281
(dp1282
g18
F0.5
sg19
I1142
sg20
g21
((dp1283
I00
I1142
stp1284
Rp1285
sg25
I1
sg26
F1142.5
sbs(g8
g957
tp1286
g0
(g14
g2
Ntp1287
Rp1288
(dp1289
g18
F0.5
sg19
I1142
sg20
g21
((dp1290
I00
I1142
stp1291
Rp1292
sg25
I2
sg26
F1143.0
sbs(g8
g331
tp1293
g0
(g14
g2
Ntp1294
Rp1295
(dp1296
g18
F0.5
sg19
I1142
sg20
g21
((dp1297
I00
I1089
sI01
I53
stp1298
Rp1299
sg25
I2
sg26
F1143.0
sbs(g9
g464
tp1300
g0
(g14
g2
Ntp1301
Rp1302
(dp1303
g18
F0.5
sg19
I83
sg20
g21
((dp1304
I00
I83
stp1305
Rp1306
sg25
I2
sg26
F84.0
sbs(g9
g876
tp1307
g0
(g14
g2
Ntp1308
Rp1309
(dp1310
g18
F0.5
sg19
I83
sg20
g21
((dp1311
I00
I83
stp1312
Rp1313
sg25
I2
sg26
F84.0
sbs(g8
S'launch'
p1314
tp1315
g0
(g14
g2
Ntp1316
Rp1317
(dp1318
g18
F0.5
sg19
I1142
sg20
g21
((dp1319
I00
I1131
sI01
I11
stp1320
Rp1321
sg25
I2
sg26
F1143.0
sbs(g9
g1314
tp1322
g0
(g14
g2
Ntp1323
Rp1324
(dp1325
g18
F0.5
sg19
I83
sg20
g21
((dp1326
I00
I83
stp1327
Rp1328
sg25
I2
sg26
F84.0
sbs(g8
g727
tp1329
g0
(g14
g2
Ntp1330
Rp1331
(dp1332
g18
F0.5
sg19
I1142
sg20
g21
((dp1333
I00
I1093
sI01
I49
stp1334
Rp1335
sg25
I2
sg26
F1143.0
sbs(g9
g1278
tp1336
g0
(g14
g2
Ntp1337
Rp1338
(dp1339
g18
F0.5
sg19
I83
sg20
g21
((dp1340
I00
I83
stp1341
Rp1342
sg25
I1
sg26
F83.5
sbs(g8
g688
tp1343
g0
(g14
g2
Ntp1344
Rp1345
(dp1346
g18
F0.5
sg19
I1142
sg20
g21
((dp1347
I00
I1138
sI01
I4
stp1348
Rp1349
sg25
I2
sg26
F1143.0
sbs(g8
g704
tp1350
g0
(g14
g2
Ntp1351
Rp1352
(dp1353
g18
F0.5
sg19
I1142
sg20
g21
((dp1354
I00
I1108
sI01
I34
stp1355
Rp1356
sg25
I2
sg26
F1143.0
sbs(g9
g410
tp1357
g0
(g14
g2
Ntp1358
Rp1359
(dp1360
g18
F0.5
sg19
I83
sg20
g21
((dp1361
I00
I83
stp1362
Rp1363
sg25
I2
sg26
F84.0
sbs(g9
g1058
tp1364
g0
(g14
g2
Ntp1365
Rp1366
(dp1367
g18
F0.5
sg19
I83
sg20
g21
((dp1368
I00
I83
stp1369
Rp1370
sg25
I2
sg26
F84.0
sbs(g8
g780
tp1371
g0
(g14
g2
Ntp1372
Rp1373
(dp1374
g18
F0.5
sg19
I1142
sg20
g21
((dp1375
I00
I1133
sI01
I9
stp1376
Rp1377
sg25
I2
sg26
F1143.0
sbs(g9
S'install'
p1378
tp1379
g0
(g14
g2
Ntp1380
Rp1381
(dp1382
g18
F0.5
sg19
I83
sg20
g21
((dp1383
I00
I79
sI01
I4
stp1384
Rp1385
sg25
I2
sg26
F84.0
sbs(g9
g559
tp1386
g0
(g14
g2
Ntp1387
Rp1388
(dp1389
g18
F0.5
sg19
I83
sg20
g21
((dp1390
I00
I83
stp1391
Rp1392
sg25
I2
sg26
F84.0
sbs(g9
g283
tp1393
g0
(g14
g2
Ntp1394
Rp1395
(dp1396
g18
F0.5
sg19
I83
sg20
g21
((dp1397
I00
I83
stp1398
Rp1399
sg25
I2
sg26
F84.0
sbs(g8
g650
tp1400
g0
(g14
g2
Ntp1401
Rp1402
(dp1403
g18
F0.5
sg19
I1142
sg20
g21
((dp1404
I00
I1128
sI01
I14
stp1405
Rp1406
sg25
I2
sg26
F1143.0
sbs(g8
g949
tp1407
g0
(g14
g2
Ntp1408
Rp1409
(dp1410
g18
F0.5
sg19
I1142
sg20
g21
((dp1411
I00
I1129
sI01
I13
stp1412
Rp1413
sg25
I2
sg26
F1143.0
sbs(g8
g749
tp1414
g0
(g14
g2
Ntp1415
Rp1416
(dp1417
g18
F0.5
sg19
I1142
sg20
g21
((dp1418
I00
I1139
sI01
I3
stp1419
Rp1420
sg25
I2
sg26
F1143.0
sbs(g8
g825
tp1421
g0
(g14
g2
Ntp1422
Rp1423
(dp1424
g18
F0.5
sg19
I1142
sg20
g21
((dp1425
I00
I1132
sI01
I10
stp1426
Rp1427
sg25
I2
sg26
F1143.0
sbs(g8
g590
tp1428
g0
(g14
g2
Ntp1429
Rp1430
(dp1431
g18
F0.5
sg19
I1142
sg20
g21
((dp1432
I00
I1136
sI01
I6
stp1433
Rp1434
sg25
I2
sg26
F1143.0
sbs(g9
g1214
tp1435
g0
(g14
g2
Ntp1436
Rp1437
(dp1438
g18
F0.5
sg19
I83
sg20
g21
((dp1439
I00
I83
stp1440
Rp1441
sg25
I2
sg26
F84.0
sbs(g9
g195
tp1442
g0
(g14
g2
Ntp1443
Rp1444
(dp1445
g18
F0.5
sg19
I83
sg20
g21
((dp1446
I00
I83
stp1447
Rp1448
sg25
I1
sg26
F83.5
sbs(g9
g43
tp1449
g0
(g14
g2
Ntp1450
Rp1451
(dp1452
g18
F0.5
sg19
I83
sg20
g21
((dp1453
I00
I83
stp1454
Rp1455
sg25
I1
sg26
F83.5
sbs(g9
g696
tp1456
g0
(g14
g2
Ntp1457
Rp1458
(dp1459
g18
F0.5
sg19
I83
sg20
g21
((dp1460
I00
I75
sI01
I8
stp1461
Rp1462
sg25
I2
sg26
F84.0
sbs(g9
g488
tp1463
g0
(g14
g2
Ntp1464
Rp1465
(dp1466
g18
F0.5
sg19
I83
sg20
g21
((dp1467
I00
I83
stp1468
Rp1469
sg25
I2
sg26
F84.0
sbs(g8
g355
tp1470
g0
(g14
g2
Ntp1471
Rp1472
(dp1473
g18
F0.5
sg19
I1142
sg20
g21
((dp1474
I00
I1133
sI01
I9
stp1475
Rp1476
sg25
I2
sg26
F1143.0
sbs(g8
g1378
tp1477
g0
(g14
g2
Ntp1478
Rp1479
(dp1480
g18
F0.5
sg19
I1142
sg20
g21
((dp1481
I00
I1134
sI01
I8
stp1482
Rp1483
sg25
I2
sg26
F1143.0
sbs(g9
g371
tp1484
g0
(g14
g2
Ntp1485
Rp1486
(dp1487
g18
F0.5
sg19
I83
sg20
g21
((dp1488
I00
I60
sI01
I23
stp1489
Rp1490
sg25
I2
sg26
F84.0
sbs(g8
g673
tp1491
g0
(g14
g2
Ntp1492
Rp1493
(dp1494
g18
F0.5
sg19
I1142
sg20
g21
((dp1495
I00
I1033
sI01
I109
stp1496
Rp1497
sg25
I2
sg26
F1143.0
sbs(g9
g898
tp1498
g0
(g14
g2
Ntp1499
Rp1500
(dp1501
g18
F0.5
sg19
I83
sg20
g21
((dp1502
I00
I83
stp1503
Rp1504
sg25
I2
sg26
F84.0
sbs(g9
g612
tp1505
g0
(g14
g2
Ntp1506
Rp1507
(dp1508
g18
F0.5
sg19
I83
sg20
g21
((dp1509
I00
I83
stp1510
Rp1511
sg25
I2
sg26
F84.0
sbs(g9
g535
tp1512
g0
(g14
g2
Ntp1513
Rp1514
(dp1515
g18
F0.5
sg19
I83
sg20
g21
((dp1516
I00
I82
sI01
I1
stp1517
Rp1518
sg25
I2
sg26
F84.0
sbssS'_label_probdist'
p1519
g0
(g14
g2
Ntp1520
Rp1521
(dp1522
g18
F0.5
sg19
I1225
sg20
g21
((dp1523
g8
I1142
sg9
I83
stp1524
Rp1525
sg25
I2
sg26
F1226.0
sbsb.