ccopy_reg
_reconstructor
p0
(cnltk.classify.naivebayes
NaiveBayesClassifier
p1
c__builtin__
object
p2
Ntp3
Rp4
(dp5
S'_labels'
p6
(lp7
S'Outlook'
p8
aS'Adobe'
p9
asS'_feature_probdist'
p10
(dp11
(g9
S'button'
p12
tp13
g0
(cnltk.probability
ELEProbDist
p14
g2
Ntp15
Rp16
(dp17
S'_gamma'
p18
F0.5
sS'_N'
p19
I83
sS'_freqdist'
p20
cnltk.probability
FreqDist
p21
((dp22
I00
I83
stp23
Rp24
sS'_bins'
p25
I2
sS'_divisor'
p26
F84.0
sbs(g8
S'issues'
p27
tp28
g0
(g14
g2
Ntp29
Rp30
(dp31
g18
F0.5
sg19
I1142
sg20
g21
((dp32
I00
I1136
sI01
I6
stp33
Rp34
sg25
I2
sg26
F1143.0
sbs(g9
S'callender'
p35
tp36
g0
(g14
g2
Ntp37
Rp38
(dp39
g18
F0.5
sg19
I83
sg20
g21
((dp40
I00
I83
stp41
Rp42
sg25
I2
sg26
F84.0
sbs(g8
S'ost'
p43
tp44
g0
(g14
g2
Ntp45
Rp46
(dp47
g18
F0.5
sg19
I1142
sg20
g21
((dp48
I00
I1128
sI01
I14
stp49
Rp50
sg25
I2
sg26
F1143.0
sbs(g9
S'smartphone'
p51
tp52
g0
(g14
g2
Ntp53
Rp54
(dp55
g18
F0.5
sg19
I83
sg20
g21
((dp56
I00
I83
stp57
Rp58
sg25
I1
sg26
F83.5
sbs(g9
S'caused'
p59
tp60
g0
(g14
g2
Ntp61
Rp62
(dp63
g18
F0.5
sg19
I83
sg20
g21
((dp64
I00
I83
stp65
Rp66
sg25
I2
sg26
F84.0
sbs(g9
S'saved'
p67
tp68
g0
(g14
g2
Ntp69
Rp70
(dp71
g18
F0.5
sg19
I83
sg20
g21
((dp72
I00
I83
stp73
Rp74
sg25
I1
sg26
F83.5
sbs(g8
S'compliance'
p75
tp76
g0
(g14
g2
Ntp77
Rp78
(dp79
g18
F0.5
sg19
I1142
sg20
g21
((dp80
I00
I1141
sI01
I1
stp81
Rp82
sg25
I2
sg26
F1143.0
sbs(g8
S'@'
p83
tp84
g0
(g14
g2
Ntp85
Rp86
(dp87
g18
F0.5
sg19
I1142
sg20
g21
((dp88
I00
I1138
sI01
I4
stp89
Rp90
sg25
I2
sg26
F1143.0
sbs(g8
S'code'
p91
tp92
g0
(g14
g2
Ntp93
Rp94
(dp95
g18
F0.5
sg19
I1142
sg20
g21
((dp96
I00
I1141
sI01
I1
stp97
Rp98
sg25
I2
sg26
F1143.0
sbs(g9
S'global'
p99
tp100
g0
(g14
g2
Ntp101
Rp102
(dp103
g18
F0.5
sg19
I83
sg20
g21
((dp104
I00
I83
stp105
Rp106
sg25
I1
sg26
F83.5
sbs(g9
S'abode'
p107
tp108
g0
(g14
g2
Ntp109
Rp110
(dp111
g18
F0.5
sg19
I83
sg20
g21
((dp112
I00
I83
stp113
Rp114
sg25
I1
sg26
F83.5
sbs(g9
S'mb'
p115
tp116
g0
(g14
g2
Ntp117
Rp118
(dp119
g18
F0.5
sg19
I83
sg20
g21
((dp120
I00
I83
stp121
Rp122
sg25
I2
sg26
F84.0
sbs(g8
S'--'
p123
tp124
g0
(g14
g2
Ntp125
Rp126
(dp127
g18
F0.5
sg19
I1142
sg20
g21
((dp128
I00
I1141
sI01
I1
stp129
Rp130
sg25
I2
sg26
F1143.0
sbs(g8
S'joinee'
p131
tp132
g0
(g14
g2
Ntp133
Rp134
(dp135
g18
F0.5
sg19
I1142
sg20
g21
((dp136
I00
I1142
stp137
Rp138
sg25
I1
sg26
F1142.5
sbs(g8
S'slowness'
p139
tp140
g0
(g14
g2
Ntp141
Rp142
(dp143
g18
F0.5
sg19
I1142
sg20
g21
((dp144
I00
I1141
sI01
I1
stp145
Rp146
sg25
I2
sg26
F1143.0
sbs(g8
S'query'
p147
tp148
g0
(g14
g2
Ntp149
Rp150
(dp151
g18
F0.5
sg19
I1142
sg20
g21
((dp152
I00
I1142
stp153
Rp154
sg25
I1
sg26
F1142.5
sbs(g8
S'non'
p155
tp156
g0
(g14
g2
Ntp157
Rp158
(dp159
g18
F0.5
sg19
I1142
sg20
g21
((dp160
I00
I1140
sI01
I2
stp161
Rp162
sg25
I2
sg26
F1143.0
sbs(g9
S'hanged'
p163
tp164
g0
(g14
g2
Ntp165
Rp166
(dp167
g18
F0.5
sg19
I83
sg20
g21
((dp168
I00
I83
stp169
Rp170
sg25
I2
sg26
F84.0
sbs(g8
S'look'
p171
tp172
g0
(g14
g2
Ntp173
Rp174
(dp175
g18
F0.5
sg19
I1142
sg20
g21
((dp176
I00
I537
sI01
I605
stp177
Rp178
sg25
I2
sg26
F1143.0
sbs(g9
S'tc'
p179
tp180
g0
(g14
g2
Ntp181
Rp182
(dp183
g18
F0.5
sg19
I83
sg20
g21
((dp184
I00
I83
stp185
Rp186
sg25
I2
sg26
F84.0
sbs(g9
S"'not"
p187
tp188
g0
(g14
g2
Ntp189
Rp190
(dp191
g18
F0.5
sg19
I83
sg20
g21
((dp192
I00
I83
stp193
Rp194
sg25
I1
sg26
F83.5
sbs(g8
S'results'
p195
tp196
g0
(g14
g2
Ntp197
Rp198
(dp199
g18
F0.5
sg19
I1142
sg20
g21
((dp200
I00
I1142
stp201
Rp202
sg25
I1
sg26
F1142.5
sbs(g9
S'outlokk'
p203
tp204
g0
(g14
g2
Ntp205
Rp206
(dp207
g18
F0.5
sg19
I83
sg20
g21
((dp208
I00
I83
stp209
Rp210
sg25
I2
sg26
F84.0
sbs(g8
S'salaried'
p211
tp212
g0
(g14
g2
Ntp213
Rp214
(dp215
g18
F0.5
sg19
I1142
sg20
g21
((dp216
I00
I1142
stp217
Rp218
sg25
I1
sg26
F1142.5
sbs(g8
S'returning'
p219
tp220
g0
(g14
g2
Ntp221
Rp222
(dp223
g18
F0.5
sg19
I1142
sg20
g21
((dp224
I00
I1142
stp225
Rp226
sg25
I1
sg26
F1142.5
sbs(g8
g59
tp227
g0
(g14
g2
Ntp228
Rp229
(dp230
g18
F0.5
sg19
I1142
sg20
g21
((dp231
I00
I1141
sI01
I1
stp232
Rp233
sg25
I2
sg26
F1143.0
sbs(g9
g43
tp234
g0
(g14
g2
Ntp235
Rp236
(dp237
g18
F0.5
sg19
I83
sg20
g21
((dp238
I00
I83
stp239
Rp240
sg25
I2
sg26
F84.0
sbs(g9
S'ticket'
p241
tp242
g0
(g14
g2
Ntp243
Rp244
(dp245
g18
F0.5
sg19
I83
sg20
g21
((dp246
I00
I83
stp247
Rp248
sg25
I2
sg26
F84.0
sbs(g9
S'messy'
p249
tp250
g0
(g14
g2
Ntp251
Rp252
(dp253
g18
F0.5
sg19
I83
sg20
g21
((dp254
I00
I83
stp255
Rp256
sg25
I2
sg26
F84.0
sbs(g8
S'created'
p257
tp258
g0
(g14
g2
Ntp259
Rp260
(dp261
g18
F0.5
sg19
I1142
sg20
g21
((dp262
I00
I1141
sI01
I1
stp263
Rp264
sg25
I2
sg26
F1143.0
sbs(g9
S'request-questions'
p265
tp266
g0
(g14
g2
Ntp267
Rp268
(dp269
g18
F0.5
sg19
I83
sg20
g21
((dp270
I00
I83
stp271
Rp272
sg25
I1
sg26
F83.5
sbs(g9
S'spellcheck'
p273
tp274
g0
(g14
g2
Ntp275
Rp276
(dp277
g18
F0.5
sg19
I83
sg20
g21
((dp278
I00
I83
stp279
Rp280
sg25
I2
sg26
F84.0
sbs(g8
S'rob'
p281
tp282
g0
(g14
g2
Ntp283
Rp284
(dp285
g18
F0.5
sg19
I1142
sg20
g21
((dp286
I00
I1136
sI01
I6
stp287
Rp288
sg25
I2
sg26
F1143.0
sbs(g8
g35
tp289
g0
(g14
g2
Ntp290
Rp291
(dp292
g18
F0.5
sg19
I1142
sg20
g21
((dp293
I00
I1140
sI01
I2
stp294
Rp295
sg25
I2
sg26
F1143.0
sbs(g8
S'increase'
p296
tp297
g0
(g14
g2
Ntp298
Rp299
(dp300
g18
F0.5
sg19
I1142
sg20
g21
((dp301
I00
I1133
sI01
I9
stp302
Rp303
sg25
I2
sg26
F1143.0
sbs(g8
S'disaapeared'
p304
tp305
g0
(g14
g2
Ntp306
Rp307
(dp308
g18
F0.5
sg19
I1142
sg20
g21
((dp309
I00
I1141
sI01
I1
stp310
Rp311
sg25
I2
sg26
F1143.0
sbs(g9
g123
tp312
g0
(g14
g2
Ntp313
Rp314
(dp315
g18
F0.5
sg19
I83
sg20
g21
((dp316
I00
I83
stp317
Rp318
sg25
I2
sg26
F84.0
sbs(g8
S'gb'
p319
tp320
g0
(g14
g2
Ntp321
Rp322
(dp323
g18
F0.5
sg19
I1142
sg20
g21
((dp324
I00
I1142
stp325
Rp326
sg25
I1
sg26
F1142.5
sbs(g9
S'send'
p327
tp328
g0
(g14
g2
Ntp329
Rp330
(dp331
g18
F0.5
sg19
I83
sg20
g21
((dp332
I00
I83
stp333
Rp334
sg25
I2
sg26
F84.0
sbs(g9
S'suite'
p335
tp336
g0
(g14
g2
Ntp337
Rp338
(dp339
g18
F0.5
sg19
I83
sg20
g21
((dp340
I00
I83
stp341
Rp342
sg25
I1
sg26
F83.5
sbs(g9
g155
tp343
g0
(g14
g2
Ntp344
Rp345
(dp346
g18
F0.5
sg19
I83
sg20
g21
((dp347
I00
I83
stp348
Rp349
sg25
I2
sg26
F84.0
sbs(g8
S'existing'
p350
tp351
g0
(g14
g2
Ntp352
Rp353
(dp354
g18
F0.5
sg19
I1142
sg20
g21
((dp355
I00
I1141
sI01
I1
stp356
Rp357
sg25
I2
sg26
F1143.0
sbs(g9
g83
tp358
g0
(g14
g2
Ntp359
Rp360
(dp361
g18
F0.5
sg19
I83
sg20
g21
((dp362
I00
I83
stp363
Rp364
sg25
I2
sg26
F84.0
sbs(g9
S'manager'
p365
tp366
g0
(g14
g2
Ntp367
Rp368
(dp369
g18
F0.5
sg19
I83
sg20
g21
((dp370
I00
I83
stp371
Rp372
sg25
I2
sg26
F84.0
sbs(g8
S'outlookl'
p373
tp374
g0
(g14
g2
Ntp375
Rp376
(dp377
g18
F0.5
sg19
I1142
sg20
g21
((dp378
I00
I1142
stp379
Rp380
sg25
I1
sg26
F1142.5
sbs(g8
S'every'
p381
tp382
g0
(g14
g2
Ntp383
Rp384
(dp385
g18
F0.5
sg19
I1142
sg20
g21
((dp386
I00
I1140
sI01
I2
stp387
Rp388
sg25
I2
sg26
F1143.0
sbs(g8
g203
tp389
g0
(g14
g2
Ntp390
Rp391
(dp392
g18
F0.5
sg19
I1142
sg20
g21
((dp393
I00
I1141
sI01
I1
stp394
Rp395
sg25
I2
sg26
F1143.0
sbs(g8
g51
tp396
g0
(g14
g2
Ntp397
Rp398
(dp399
g18
F0.5
sg19
I1142
sg20
g21
((dp400
I00
I1142
stp401
Rp402
sg25
I1
sg26
F1142.5
sbs(g8
S'creative'
p403
tp404
g0
(g14
g2
Ntp405
Rp406
(dp407
g18
F0.5
sg19
I1142
sg20
g21
((dp408
I00
I1142
stp409
Rp410
sg25
I1
sg26
F1142.5
sbs(g8
S'rom'
p411
tp412
g0
(g14
g2
Ntp413
Rp414
(dp415
g18
F0.5
sg19
I1142
sg20
g21
((dp416
I00
I1105
sI01
I37
stp417
Rp418
sg25
I2
sg26
F1143.0
sbs(g9
S'sent'
p419
tp420
g0
(g14
g2
Ntp421
Rp422
(dp423
g18
F0.5
sg19
I83
sg20
g21
((dp424
I00
I83
stp425
Rp426
sg25
I2
sg26
F84.0
sbs(g8
S'list'
p427
tp428
g0
(g14
g2
Ntp429
Rp430
(dp431
g18
F0.5
sg19
I1142
sg20
g21
((dp432
I00
I1140
sI01
I2
stp433
Rp434
sg25
I2
sg26
F1143.0
sbs(g9
S'text'
p435
tp436
g0
(g14
g2
Ntp437
Rp438
(dp439
g18
F0.5
sg19
I83
sg20
g21
((dp440
I00
I83
stp441
Rp442
sg25
I2
sg26
F84.0
sbs(g9
g171
tp443
g0
(g14
g2
Ntp444
Rp445
(dp446
g18
F0.5
sg19
I83
sg20
g21
((dp447
I00
I83
stp448
Rp449
sg25
I2
sg26
F84.0
sbs(g9
S'purchasing/mp'
p450
tp451
g0
(g14
g2
Ntp452
Rp453
(dp454
g18
F0.5
sg19
I83
sg20
g21
((dp455
I00
I83
stp456
Rp457
sg25
I1
sg26
F83.5
sbs(g8
g12
tp458
g0
(g14
g2
Ntp459
Rp460
(dp461
g18
F0.5
sg19
I1142
sg20
g21
((dp462
I00
I1139
sI01
I3
stp463
Rp464
sg25
I2
sg26
F1143.0
sbs(g8
S'premium'
p465
tp466
g0
(g14
g2
Ntp467
Rp468
(dp469
g18
F0.5
sg19
I1142
sg20
g21
((dp470
I00
I1142
stp471
Rp472
sg25
I2
sg26
F1143.0
sbs(g9
g75
tp473
g0
(g14
g2
Ntp474
Rp475
(dp476
g18
F0.5
sg19
I83
sg20
g21
((dp477
I00
I83
stp478
Rp479
sg25
I2
sg26
F84.0
sbs(g8
g115
tp480
g0
(g14
g2
Ntp481
Rp482
(dp483
g18
F0.5
sg19
I1142
sg20
g21
((dp484
I00
I1141
sI01
I1
stp485
Rp486
sg25
I2
sg26
F1143.0
sbs(g8
g435
tp487
g0
(g14
g2
Ntp488
Rp489
(dp490
g18
F0.5
sg19
I1142
sg20
g21
((dp491
I00
I1141
sI01
I1
stp492
Rp493
sg25
I2
sg26
F1143.0
sbs(g9
S'program'
p494
tp495
g0
(g14
g2
Ntp496
Rp497
(dp498
g18
F0.5
sg19
I83
sg20
g21
((dp499
I00
I83
stp500
Rp501
sg25
I1
sg26
F83.5
sbs(g9
g147
tp502
g0
(g14
g2
Ntp503
Rp504
(dp505
g18
F0.5
sg19
I83
sg20
g21
((dp506
I00
I83
stp507
Rp508
sg25
I1
sg26
F83.5
sbs(g8
g241
tp509
g0
(g14
g2
Ntp510
Rp511
(dp512
g18
F0.5
sg19
I1142
sg20
g21
((dp513
I00
I1141
sI01
I1
stp514
Rp515
sg25
I2
sg26
F1143.0
sbs(g8
g67
tp516
g0
(g14
g2
Ntp517
Rp518
(dp519
g18
F0.5
sg19
I1142
sg20
g21
((dp520
I00
I1142
stp521
Rp522
sg25
I1
sg26
F1142.5
sbs(g8
g163
tp523
g0
(g14
g2
Ntp524
Rp525
(dp526
g18
F0.5
sg19
I1142
sg20
g21
((dp527
I00
I1137
sI01
I5
stp528
Rp529
sg25
I2
sg26
F1143.0
sbs(g8
g99
tp530
g0
(g14
g2
Ntp531
Rp532
(dp533
g18
F0.5
sg19
I1142
sg20
g21
((dp534
I00
I1142
stp535
Rp536
sg25
I1
sg26
F1142.5
sbs(g9
g211
tp537
g0
(g14
g2
Ntp538
Rp539
(dp540
g18
F0.5
sg19
I83
sg20
g21
((dp541
I00
I83
stp542
Rp543
sg25
I1
sg26
F83.5
sbs(g9
g91
tp544
g0
(g14
g2
Ntp545
Rp546
(dp547
g18
F0.5
sg19
I83
sg20
g21
((dp548
I00
I83
stp549
Rp550
sg25
I2
sg26
F84.0
sbs(g9
g27
tp551
g0
(g14
g2
Ntp552
Rp553
(dp554
g18
F0.5
sg19
I83
sg20
g21
((dp555
I00
I83
stp556
Rp557
sg25
I2
sg26
F84.0
sbs(g9
g195
tp558
g0
(g14
g2
Ntp559
Rp560
(dp561
g18
F0.5
sg19
I83
sg20
g21
((dp562
I00
I83
stp563
Rp564
sg25
I1
sg26
F83.5
sbs(g8
g365
tp565
g0
(g14
g2
Ntp566
Rp567
(dp568
g18
F0.5
sg19
I1142
sg20
g21
((dp569
I00
I1141
sI01
I1
stp570
Rp571
sg25
I2
sg26
F1143.0
sbs(g8
g187
tp572
g0
(g14
g2
Ntp573
Rp574
(dp575
g18
F0.5
sg19
I1142
sg20
g21
((dp576
I00
I1142
stp577
Rp578
sg25
I1
sg26
F1142.5
sbs(g9
S'updated'
p579
tp580
g0
(g14
g2
Ntp581
Rp582
(dp583
g18
F0.5
sg19
I83
sg20
g21
((dp584
I00
I83
stp585
Rp586
sg25
I2
sg26
F84.0
sbs(g8
g179
tp587
g0
(g14
g2
Ntp588
Rp589
(dp590
g18
F0.5
sg19
I1142
sg20
g21
((dp591
I00
I1141
sI01
I1
stp592
Rp593
sg25
I2
sg26
F1143.0
sbs(g8
g107
tp594
g0
(g14
g2
Ntp595
Rp596
(dp597
g18
F0.5
sg19
I1142
sg20
g21
((dp598
I00
I1142
stp599
Rp600
sg25
I1
sg26
F1142.5
sbs(g9
g281
tp601
g0
(g14
g2
Ntp602
Rp603
(dp604
g18
F0.5
sg19
I83
sg20
g21
((dp605
I00
I77
sI01
I6
stp606
Rp607
sg25
I2
sg26
F84.0
sbs(g9
g219
tp608
g0
(g14
g2
Ntp609
Rp610
(dp611
g18
F0.5
sg19
I83
sg20
g21
((dp612
I00
I83
stp613
Rp614
sg25
I1
sg26
F83.5
sbs(g8
g494
tp615
g0
(g14
g2
Ntp616
Rp617
(dp618
g18
F0.5
sg19
I1142
sg20
g21
((dp619
I00
I1142
stp620
Rp621
sg25
I1
sg26
F1142.5
sbs(g9
g411
tp622
g0
(g14
g2
Ntp623
Rp624
(dp625
g18
F0.5
sg19
I83
sg20
g21
((dp626
I00
I81
sI01
I2
stp627
Rp628
sg25
I2
sg26
F84.0
sbs(g8
g419
tp629
g0
(g14
g2
Ntp630
Rp631
(dp632
g18
F0.5
sg19
I1142
sg20
g21
((dp633
I00
I1141
sI01
I1
stp634
Rp635
sg25
I2
sg26
F1143.0
sbs(g8
g265
tp636
g0
(g14
g2
Ntp637
Rp638
(dp639
g18
F0.5
sg19
I1142
sg20
g21
((dp640
I00
I1142
stp641
Rp642
sg25
I1
sg26
F1142.5
sbs(g8
g249
tp643
g0
(g14
g2
Ntp644
Rp645
(dp646
g18
F0.5
sg19
I1142
sg20
g21
((dp647
I00
I1140
sI01
I2
stp648
Rp649
sg25
I2
sg26
F1143.0
sbs(g9
g257
tp650
g0
(g14
g2
Ntp651
Rp652
(dp653
g18
F0.5
sg19
I83
sg20
g21
((dp654
I00
I83
stp655
Rp656
sg25
I2
sg26
F84.0
sbs(g9
g350
tp657
g0
(g14
g2
Ntp658
Rp659
(dp660
g18
F0.5
sg19
I83
sg20
g21
((dp661
I00
I83
stp662
Rp663
sg25
I2
sg26
F84.0
sbs(g9
g465
tp664
g0
(g14
g2
Ntp665
Rp666
(dp667
g18
F0.5
sg19
I83
sg20
g21
((dp668
I00
I82
sI01
I1
stp669
Rp670
sg25
I2
sg26
F84.0
sbs(g9
g296
tp671
g0
(g14
g2
Ntp672
Rp673
(dp674
g18
F0.5
sg19
I83
sg20
g21
((dp675
I00
I83
stp676
Rp677
sg25
I2
sg26
F84.0
sbs(g9
g139
tp678
g0
(g14
g2
Ntp679
Rp680
(dp681
g18
F0.5
sg19
I83
sg20
g21
((dp682
I00
I83
stp683
Rp684
sg25
I2
sg26
F84.0
sbs(g9
g319
tp685
g0
(g14
g2
Ntp686
Rp687
(dp688
g18
F0.5
sg19
I83
sg20
g21
((dp689
I00
I83
stp690
Rp691
sg25
I1
sg26
F83.5
sbs(g8
g579
tp692
g0
(g14
g2
Ntp693
Rp694
(dp695
g18
F0.5
sg19
I1142
sg20
g21
((dp696
I00
I1138
sI01
I4
stp697
Rp698
sg25
I2
sg26
F1143.0
sbs(g8
g327
tp699
g0
(g14
g2
Ntp700
Rp701
(dp702
g18
F0.5
sg19
I1142
sg20
g21
((dp703
I00
I1124
sI01
I18
stp704
Rp705
sg25
I2
sg26
F1143.0
sbs(g9
g373
tp706
g0
(g14
g2
Ntp707
Rp708
(dp709
g18
F0.5
sg19
I83
sg20
g21
((dp710
I00
I83
stp711
Rp712
sg25
I1
sg26
F83.5
sbs(g9
g304
tp713
g0
(g14
g2
Ntp714
Rp715
(dp716
g18
F0.5
sg19
I83
sg20
g21
((dp717
I00
I83
stp718
Rp719
sg25
I2
sg26
F84.0
sbs(g9
g403
tp720
g0
(g14
g2
Ntp721
Rp722
(dp723
g18
F0.5
sg19
I83
sg20
g21
((dp724
I00
I83
stp725
Rp726
sg25
I1
sg26
F83.5
sbs(g9
g131
tp727
g0
(g14
g2
Ntp728
Rp729
(dp730
g18
F0.5
sg19
I83
sg20
g21
((dp731
I00
I83
stp732
Rp733
sg25
I1
sg26
F83.5
sbs(g9
g427
tp734
g0
(g14
g2
Ntp735
Rp736
(dp737
g18
F0.5
sg19
I83
sg20
g21
((dp738
I00
I83
stp739
Rp740
sg25
I2
sg26
F84.0
sbs(g8
g335
tp741
g0
(g14
g2
Ntp742
Rp743
(dp744
g18
F0.5
sg19
I1142
sg20
g21
((dp745
I00
I1142
stp746
Rp747
sg25
I1
sg26
F1142.5
sbs(g9
g381
tp748
g0
(g14
g2
Ntp749
Rp750
(dp751
g18
F0.5
sg19
I83
sg20
g21
((dp752
I00
I83
stp753
Rp754
sg25
I2
sg26
F84.0
sbs(g8
g273
tp755
g0
(g14
g2
Ntp756
Rp757
(dp758
g18
F0.5
sg19
I1142
sg20
g21
((dp759
I00
I1141
sI01
I1
stp760
Rp761
sg25
I2
sg26
F1143.0
sbs(g8
g450
tp762
g0
(g14
g2
Ntp763
Rp764
(dp765
g18
F0.5
sg19
I1142
sg20
g21
((dp766
I00
I1142
stp767
Rp768
sg25
I1
sg26
F1142.5
sbssS'_label_probdist'
p769
g0
(g14
g2
Ntp770
Rp771
(dp772
g18
F0.5
sg19
I1225
sg20
g21
((dp773
g8
I1142
sg9
I83
stp774
Rp775
sg25
I2
sg26
F1226.0
sbsb.